; ModuleID = 'C:/Users/ShaneWu/OneDrive/Desktop/Documents/NTU/HLS/labB/hls_FFT_hardware/solution1/.autopilot/db/a.g.ld.5.gdce.bc'
source_filename = "llvm-link"
target datalayout = "e-m:e-i64:64-i128:128-i256:256-i512:512-i1024:1024-i2048:2048-i4096:4096-n8:16:32:64-S128-v16:16-v24:32-v32:32-v48:64-v96:128-v192:256-v256:256-v512:512-v1024:1024"
target triple = "fpga64-xilinx-none"

; Function Attrs: inaccessiblememonly nounwind
declare void @llvm.sideeffect() #0

; Function Attrs: noinline
define void @apatb_fft_ir(float* noalias nocapture nonnull readonly "fpga.decayed.dim.hint"="1024" %X_R, float* noalias nocapture nonnull readonly "fpga.decayed.dim.hint"="1024" %X_I, float* noalias nocapture nonnull "fpga.decayed.dim.hint"="1024" %OUT_R, float* noalias nocapture nonnull "fpga.decayed.dim.hint"="1024" %OUT_I) local_unnamed_addr #1 {
entry:
  %malloccall_0 = call i8* @malloc(i64 1024)
  %malloccall_1 = call i8* @malloc(i64 1024)
  %malloccall_2 = call i8* @malloc(i64 1024)
  %malloccall_3 = call i8* @malloc(i64 1024)
  %X_R_copy_0 = bitcast i8* %malloccall_0 to [256 x float]*
  %X_R_copy_1 = bitcast i8* %malloccall_1 to [256 x float]*
  %X_R_copy_2 = bitcast i8* %malloccall_2 to [256 x float]*
  %X_R_copy_3 = bitcast i8* %malloccall_3 to [256 x float]*
  %malloccall1_0 = call i8* @malloc(i64 1024)
  %malloccall1_1 = call i8* @malloc(i64 1024)
  %malloccall1_2 = call i8* @malloc(i64 1024)
  %malloccall1_3 = call i8* @malloc(i64 1024)
  %X_I_copy_0 = bitcast i8* %malloccall1_0 to [256 x float]*
  %X_I_copy_1 = bitcast i8* %malloccall1_1 to [256 x float]*
  %X_I_copy_2 = bitcast i8* %malloccall1_2 to [256 x float]*
  %X_I_copy_3 = bitcast i8* %malloccall1_3 to [256 x float]*
  %malloccall2_0 = call i8* @malloc(i64 1024)
  %malloccall2_1 = call i8* @malloc(i64 1024)
  %malloccall2_2 = call i8* @malloc(i64 1024)
  %malloccall2_3 = call i8* @malloc(i64 1024)
  %OUT_R_copy_0 = bitcast i8* %malloccall2_0 to [256 x float]*
  %OUT_R_copy_1 = bitcast i8* %malloccall2_1 to [256 x float]*
  %OUT_R_copy_2 = bitcast i8* %malloccall2_2 to [256 x float]*
  %OUT_R_copy_3 = bitcast i8* %malloccall2_3 to [256 x float]*
  %malloccall3_0 = call i8* @malloc(i64 1024)
  %malloccall3_1 = call i8* @malloc(i64 1024)
  %malloccall3_2 = call i8* @malloc(i64 1024)
  %malloccall3_3 = call i8* @malloc(i64 1024)
  %OUT_I_copy_0 = bitcast i8* %malloccall3_0 to [256 x float]*
  %OUT_I_copy_1 = bitcast i8* %malloccall3_1 to [256 x float]*
  %OUT_I_copy_2 = bitcast i8* %malloccall3_2 to [256 x float]*
  %OUT_I_copy_3 = bitcast i8* %malloccall3_3 to [256 x float]*
  %0 = bitcast float* %X_R to [1024 x float]*
  %1 = bitcast float* %X_I to [1024 x float]*
  %2 = bitcast float* %OUT_R to [1024 x float]*
  %3 = bitcast float* %OUT_I to [1024 x float]*
  call void @copy_in([1024 x float]* nonnull %0, [256 x float]* %X_R_copy_0, [256 x float]* %X_R_copy_1, [256 x float]* %X_R_copy_2, [256 x float]* %X_R_copy_3, [1024 x float]* nonnull %1, [256 x float]* %X_I_copy_0, [256 x float]* %X_I_copy_1, [256 x float]* %X_I_copy_2, [256 x float]* %X_I_copy_3, [1024 x float]* nonnull %2, [256 x float]* %OUT_R_copy_0, [256 x float]* %OUT_R_copy_1, [256 x float]* %OUT_R_copy_2, [256 x float]* %OUT_R_copy_3, [1024 x float]* nonnull %3, [256 x float]* %OUT_I_copy_0, [256 x float]* %OUT_I_copy_1, [256 x float]* %OUT_I_copy_2, [256 x float]* %OUT_I_copy_3)
  %_0 = getelementptr [256 x float], [256 x float]* %X_R_copy_0, i32 0, i32 0
  %_1 = getelementptr [256 x float], [256 x float]* %X_R_copy_1, i32 0, i32 0
  %_2 = getelementptr [256 x float], [256 x float]* %X_R_copy_2, i32 0, i32 0
  %_3 = getelementptr [256 x float], [256 x float]* %X_R_copy_3, i32 0, i32 0
  %_04 = getelementptr [256 x float], [256 x float]* %X_I_copy_0, i32 0, i32 0
  %_15 = getelementptr [256 x float], [256 x float]* %X_I_copy_1, i32 0, i32 0
  %_26 = getelementptr [256 x float], [256 x float]* %X_I_copy_2, i32 0, i32 0
  %_37 = getelementptr [256 x float], [256 x float]* %X_I_copy_3, i32 0, i32 0
  %_08 = getelementptr [256 x float], [256 x float]* %OUT_R_copy_0, i32 0, i32 0
  %_19 = getelementptr [256 x float], [256 x float]* %OUT_R_copy_1, i32 0, i32 0
  %_210 = getelementptr [256 x float], [256 x float]* %OUT_R_copy_2, i32 0, i32 0
  %_311 = getelementptr [256 x float], [256 x float]* %OUT_R_copy_3, i32 0, i32 0
  %_012 = getelementptr [256 x float], [256 x float]* %OUT_I_copy_0, i32 0, i32 0
  %_113 = getelementptr [256 x float], [256 x float]* %OUT_I_copy_1, i32 0, i32 0
  %_214 = getelementptr [256 x float], [256 x float]* %OUT_I_copy_2, i32 0, i32 0
  %_315 = getelementptr [256 x float], [256 x float]* %OUT_I_copy_3, i32 0, i32 0
  call void @llvm.sideeffect() #0 [ "xlx_array_partition"(float* %_0, i32 0, i32 1, i32 0, i1 false) ], !dbg !5
  call void @llvm.sideeffect() #0 [ "xlx_array_partition"(float* %_1, i32 0, i32 1, i32 0, i1 false) ], !dbg !5
  call void @llvm.sideeffect() #0 [ "xlx_array_partition"(float* %_2, i32 0, i32 1, i32 0, i1 false) ], !dbg !5
  call void @llvm.sideeffect() #0 [ "xlx_array_partition"(float* %_3, i32 0, i32 1, i32 0, i1 false) ], !dbg !5
  call void @llvm.sideeffect() #0 [ "xlx_array_partition"(float* %_04, i32 0, i32 1, i32 0, i1 false) ], !dbg !3576
  call void @llvm.sideeffect() #0 [ "xlx_array_partition"(float* %_15, i32 0, i32 1, i32 0, i1 false) ], !dbg !3576
  call void @llvm.sideeffect() #0 [ "xlx_array_partition"(float* %_26, i32 0, i32 1, i32 0, i1 false) ], !dbg !3576
  call void @llvm.sideeffect() #0 [ "xlx_array_partition"(float* %_37, i32 0, i32 1, i32 0, i1 false) ], !dbg !3576
  call void @llvm.sideeffect() #0 [ "xlx_array_partition"(float* %_08, i32 0, i32 1, i32 0, i1 false) ], !dbg !3577
  call void @llvm.sideeffect() #0 [ "xlx_array_partition"(float* %_19, i32 0, i32 1, i32 0, i1 false) ], !dbg !3577
  call void @llvm.sideeffect() #0 [ "xlx_array_partition"(float* %_210, i32 0, i32 1, i32 0, i1 false) ], !dbg !3577
  call void @llvm.sideeffect() #0 [ "xlx_array_partition"(float* %_311, i32 0, i32 1, i32 0, i1 false) ], !dbg !3577
  call void @llvm.sideeffect() #0 [ "xlx_array_partition"(float* %_012, i32 0, i32 1, i32 0, i1 false) ], !dbg !3578
  call void @llvm.sideeffect() #0 [ "xlx_array_partition"(float* %_113, i32 0, i32 1, i32 0, i1 false) ], !dbg !3578
  call void @llvm.sideeffect() #0 [ "xlx_array_partition"(float* %_214, i32 0, i32 1, i32 0, i1 false) ], !dbg !3578
  call void @llvm.sideeffect() #0 [ "xlx_array_partition"(float* %_315, i32 0, i32 1, i32 0, i1 false) ], !dbg !3578
  call void @apatb_fft_hw([256 x float]* %X_R_copy_0, [256 x float]* %X_R_copy_1, [256 x float]* %X_R_copy_2, [256 x float]* %X_R_copy_3, [256 x float]* %X_I_copy_0, [256 x float]* %X_I_copy_1, [256 x float]* %X_I_copy_2, [256 x float]* %X_I_copy_3, [256 x float]* %OUT_R_copy_0, [256 x float]* %OUT_R_copy_1, [256 x float]* %OUT_R_copy_2, [256 x float]* %OUT_R_copy_3, [256 x float]* %OUT_I_copy_0, [256 x float]* %OUT_I_copy_1, [256 x float]* %OUT_I_copy_2, [256 x float]* %OUT_I_copy_3)
  call void @copy_back([1024 x float]* %0, [256 x float]* %X_R_copy_0, [256 x float]* %X_R_copy_1, [256 x float]* %X_R_copy_2, [256 x float]* %X_R_copy_3, [1024 x float]* %1, [256 x float]* %X_I_copy_0, [256 x float]* %X_I_copy_1, [256 x float]* %X_I_copy_2, [256 x float]* %X_I_copy_3, [1024 x float]* %2, [256 x float]* %OUT_R_copy_0, [256 x float]* %OUT_R_copy_1, [256 x float]* %OUT_R_copy_2, [256 x float]* %OUT_R_copy_3, [1024 x float]* %3, [256 x float]* %OUT_I_copy_0, [256 x float]* %OUT_I_copy_1, [256 x float]* %OUT_I_copy_2, [256 x float]* %OUT_I_copy_3)
  call void @free(i8* %malloccall_0)
  call void @free(i8* %malloccall_1)
  call void @free(i8* %malloccall_2)
  call void @free(i8* %malloccall_3)
  call void @free(i8* %malloccall1_0)
  call void @free(i8* %malloccall1_1)
  call void @free(i8* %malloccall1_2)
  call void @free(i8* %malloccall1_3)
  call void @free(i8* %malloccall2_0)
  call void @free(i8* %malloccall2_1)
  call void @free(i8* %malloccall2_2)
  call void @free(i8* %malloccall2_3)
  call void @free(i8* %malloccall3_0)
  call void @free(i8* %malloccall3_1)
  call void @free(i8* %malloccall3_2)
  call void @free(i8* %malloccall3_3)
  ret void
}

declare noalias i8* @malloc(i64) local_unnamed_addr

declare void @free(i8*) local_unnamed_addr

; Function Attrs: argmemonly noinline norecurse
define internal void @onebyonecpy_hls.p0a1024f32.6.7([256 x float]* noalias "fpga.caller.interfaces"="layout_transformed" "orig.arg.no"="0" %_0, [256 x float]* noalias "fpga.caller.interfaces"="layout_transformed" "orig.arg.no"="0" %_1, [256 x float]* noalias "fpga.caller.interfaces"="layout_transformed" "orig.arg.no"="0" %_2, [256 x float]* noalias "fpga.caller.interfaces"="layout_transformed" "orig.arg.no"="0" %_3, [1024 x float]* noalias readonly "fpga.caller.interfaces"="layout_transformed" "orig.arg.no"="1") #2 {
entry:
  %1 = icmp eq [256 x float]* %_0, null
  %2 = icmp eq [1024 x float]* %0, null
  %3 = or i1 %1, %2
  br i1 %3, label %ret, label %copy

copy:                                             ; preds = %entry
  br label %for.loop

for.loop:                                         ; preds = %dst.addr.exit, %copy
  %for.loop.idx1 = phi i64 [ 0, %copy ], [ %for.loop.idx.next, %dst.addr.exit ]
  %4 = urem i64 %for.loop.idx1, 4
  %5 = udiv i64 %for.loop.idx1, 4
  %dst.addr_0 = getelementptr [256 x float], [256 x float]* %_0, i64 0, i64 %5
  %dst.addr_1 = getelementptr [256 x float], [256 x float]* %_1, i64 0, i64 %5
  %dst.addr_2 = getelementptr [256 x float], [256 x float]* %_2, i64 0, i64 %5
  %dst.addr_3 = getelementptr [256 x float], [256 x float]* %_3, i64 0, i64 %5
  %src.addr = getelementptr [1024 x float], [1024 x float]* %0, i64 0, i64 %for.loop.idx1
  %6 = load float, float* %src.addr, align 4
  %7 = trunc i64 %4 to i2
  switch i2 %7, label %dst.addr.case.3 [
    i2 0, label %dst.addr.case.0
    i2 1, label %dst.addr.case.1
    i2 -2, label %dst.addr.case.2
  ]

dst.addr.case.0:                                  ; preds = %for.loop
  store float %6, float* %dst.addr_0, align 4
  br label %dst.addr.exit

dst.addr.case.1:                                  ; preds = %for.loop
  store float %6, float* %dst.addr_1, align 4
  br label %dst.addr.exit

dst.addr.case.2:                                  ; preds = %for.loop
  store float %6, float* %dst.addr_2, align 4
  br label %dst.addr.exit

dst.addr.case.3:                                  ; preds = %for.loop
  store float %6, float* %dst.addr_3, align 4
  br label %dst.addr.exit

dst.addr.exit:                                    ; preds = %dst.addr.case.3, %dst.addr.case.2, %dst.addr.case.1, %dst.addr.case.0
  %for.loop.idx.next = add nuw nsw i64 %for.loop.idx1, 1
  %exitcond = icmp ne i64 %for.loop.idx.next, 1024
  br i1 %exitcond, label %for.loop, label %ret

ret:                                              ; preds = %dst.addr.exit, %entry
  ret void
}

; Function Attrs: argmemonly noinline norecurse
define internal void @copy_in([1024 x float]* noalias readonly "orig.arg.no"="0", [256 x float]* noalias "fpga.caller.interfaces"="layout_transformed" "orig.arg.no"="1" %_0, [256 x float]* noalias "fpga.caller.interfaces"="layout_transformed" "orig.arg.no"="1" %_1, [256 x float]* noalias "fpga.caller.interfaces"="layout_transformed" "orig.arg.no"="1" %_2, [256 x float]* noalias "fpga.caller.interfaces"="layout_transformed" "orig.arg.no"="1" %_3, [1024 x float]* noalias readonly "orig.arg.no"="2", [256 x float]* noalias "fpga.caller.interfaces"="layout_transformed" "orig.arg.no"="3" %_01, [256 x float]* noalias "fpga.caller.interfaces"="layout_transformed" "orig.arg.no"="3" %_12, [256 x float]* noalias "fpga.caller.interfaces"="layout_transformed" "orig.arg.no"="3" %_23, [256 x float]* noalias "fpga.caller.interfaces"="layout_transformed" "orig.arg.no"="3" %_34, [1024 x float]* noalias readonly "orig.arg.no"="4", [256 x float]* noalias "fpga.caller.interfaces"="layout_transformed" "orig.arg.no"="5" %_05, [256 x float]* noalias "fpga.caller.interfaces"="layout_transformed" "orig.arg.no"="5" %_16, [256 x float]* noalias "fpga.caller.interfaces"="layout_transformed" "orig.arg.no"="5" %_27, [256 x float]* noalias "fpga.caller.interfaces"="layout_transformed" "orig.arg.no"="5" %_38, [1024 x float]* noalias readonly "orig.arg.no"="6", [256 x float]* noalias "fpga.caller.interfaces"="layout_transformed" "orig.arg.no"="7" %_09, [256 x float]* noalias "fpga.caller.interfaces"="layout_transformed" "orig.arg.no"="7" %_110, [256 x float]* noalias "fpga.caller.interfaces"="layout_transformed" "orig.arg.no"="7" %_211, [256 x float]* noalias "fpga.caller.interfaces"="layout_transformed" "orig.arg.no"="7" %_312) #3 {
entry:
  call void @onebyonecpy_hls.p0a1024f32.6.7([256 x float]* %_0, [256 x float]* %_1, [256 x float]* %_2, [256 x float]* %_3, [1024 x float]* %0)
  call void @onebyonecpy_hls.p0a1024f32.6.7([256 x float]* %_01, [256 x float]* %_12, [256 x float]* %_23, [256 x float]* %_34, [1024 x float]* %1)
  call void @onebyonecpy_hls.p0a1024f32.6.7([256 x float]* %_05, [256 x float]* %_16, [256 x float]* %_27, [256 x float]* %_38, [1024 x float]* %2)
  call void @onebyonecpy_hls.p0a1024f32.6.7([256 x float]* %_09, [256 x float]* %_110, [256 x float]* %_211, [256 x float]* %_312, [1024 x float]* %3)
  ret void
}

; Function Attrs: argmemonly noinline norecurse
define internal void @onebyonecpy_hls.p0a1024f32.12.13([1024 x float]* noalias "fpga.caller.interfaces"="layout_transformed" "orig.arg.no"="0", [256 x float]* noalias readonly "fpga.caller.interfaces"="layout_transformed" "orig.arg.no"="1" %_0, [256 x float]* noalias readonly "fpga.caller.interfaces"="layout_transformed" "orig.arg.no"="1" %_1, [256 x float]* noalias readonly "fpga.caller.interfaces"="layout_transformed" "orig.arg.no"="1" %_2, [256 x float]* noalias readonly "fpga.caller.interfaces"="layout_transformed" "orig.arg.no"="1" %_3) #2 {
entry:
  %1 = icmp eq [1024 x float]* %0, null
  %2 = icmp eq [256 x float]* %_0, null
  %3 = or i1 %1, %2
  br i1 %3, label %ret, label %copy

copy:                                             ; preds = %entry
  br label %for.loop

for.loop:                                         ; preds = %src.addr.exit, %copy
  %for.loop.idx1 = phi i64 [ 0, %copy ], [ %for.loop.idx.next, %src.addr.exit ]
  %dst.addr = getelementptr [1024 x float], [1024 x float]* %0, i64 0, i64 %for.loop.idx1
  %4 = urem i64 %for.loop.idx1, 4
  %5 = udiv i64 %for.loop.idx1, 4
  %src.addr_0 = getelementptr [256 x float], [256 x float]* %_0, i64 0, i64 %5
  %src.addr_1 = getelementptr [256 x float], [256 x float]* %_1, i64 0, i64 %5
  %src.addr_2 = getelementptr [256 x float], [256 x float]* %_2, i64 0, i64 %5
  %src.addr_3 = getelementptr [256 x float], [256 x float]* %_3, i64 0, i64 %5
  %6 = trunc i64 %4 to i2
  switch i2 %6, label %src.addr.case.3 [
    i2 0, label %src.addr.case.0
    i2 1, label %src.addr.case.1
    i2 -2, label %src.addr.case.2
  ]

src.addr.case.0:                                  ; preds = %for.loop
  %_01 = load float, float* %src.addr_0, align 4
  br label %src.addr.exit

src.addr.case.1:                                  ; preds = %for.loop
  %_12 = load float, float* %src.addr_1, align 4
  br label %src.addr.exit

src.addr.case.2:                                  ; preds = %for.loop
  %_23 = load float, float* %src.addr_2, align 4
  br label %src.addr.exit

src.addr.case.3:                                  ; preds = %for.loop
  %_34 = load float, float* %src.addr_3, align 4
  br label %src.addr.exit

src.addr.exit:                                    ; preds = %src.addr.case.3, %src.addr.case.2, %src.addr.case.1, %src.addr.case.0
  %7 = phi float [ %_01, %src.addr.case.0 ], [ %_12, %src.addr.case.1 ], [ %_23, %src.addr.case.2 ], [ %_34, %src.addr.case.3 ]
  store float %7, float* %dst.addr, align 4
  %for.loop.idx.next = add nuw nsw i64 %for.loop.idx1, 1
  %exitcond = icmp ne i64 %for.loop.idx.next, 1024
  br i1 %exitcond, label %for.loop, label %ret

ret:                                              ; preds = %src.addr.exit, %entry
  ret void
}

; Function Attrs: argmemonly noinline norecurse
define internal void @copy_out([1024 x float]* noalias "orig.arg.no"="0", [256 x float]* noalias readonly "fpga.caller.interfaces"="layout_transformed" "orig.arg.no"="1" %_0, [256 x float]* noalias readonly "fpga.caller.interfaces"="layout_transformed" "orig.arg.no"="1" %_1, [256 x float]* noalias readonly "fpga.caller.interfaces"="layout_transformed" "orig.arg.no"="1" %_2, [256 x float]* noalias readonly "fpga.caller.interfaces"="layout_transformed" "orig.arg.no"="1" %_3, [1024 x float]* noalias "orig.arg.no"="2", [256 x float]* noalias readonly "fpga.caller.interfaces"="layout_transformed" "orig.arg.no"="3" %_01, [256 x float]* noalias readonly "fpga.caller.interfaces"="layout_transformed" "orig.arg.no"="3" %_12, [256 x float]* noalias readonly "fpga.caller.interfaces"="layout_transformed" "orig.arg.no"="3" %_23, [256 x float]* noalias readonly "fpga.caller.interfaces"="layout_transformed" "orig.arg.no"="3" %_34, [1024 x float]* noalias "orig.arg.no"="4", [256 x float]* noalias readonly "fpga.caller.interfaces"="layout_transformed" "orig.arg.no"="5" %_05, [256 x float]* noalias readonly "fpga.caller.interfaces"="layout_transformed" "orig.arg.no"="5" %_16, [256 x float]* noalias readonly "fpga.caller.interfaces"="layout_transformed" "orig.arg.no"="5" %_27, [256 x float]* noalias readonly "fpga.caller.interfaces"="layout_transformed" "orig.arg.no"="5" %_38, [1024 x float]* noalias "orig.arg.no"="6", [256 x float]* noalias readonly "fpga.caller.interfaces"="layout_transformed" "orig.arg.no"="7" %_09, [256 x float]* noalias readonly "fpga.caller.interfaces"="layout_transformed" "orig.arg.no"="7" %_110, [256 x float]* noalias readonly "fpga.caller.interfaces"="layout_transformed" "orig.arg.no"="7" %_211, [256 x float]* noalias readonly "fpga.caller.interfaces"="layout_transformed" "orig.arg.no"="7" %_312) #4 {
entry:
  call void @onebyonecpy_hls.p0a1024f32.12.13([1024 x float]* %0, [256 x float]* %_0, [256 x float]* %_1, [256 x float]* %_2, [256 x float]* %_3)
  call void @onebyonecpy_hls.p0a1024f32.12.13([1024 x float]* %1, [256 x float]* %_01, [256 x float]* %_12, [256 x float]* %_23, [256 x float]* %_34)
  call void @onebyonecpy_hls.p0a1024f32.12.13([1024 x float]* %2, [256 x float]* %_05, [256 x float]* %_16, [256 x float]* %_27, [256 x float]* %_38)
  call void @onebyonecpy_hls.p0a1024f32.12.13([1024 x float]* %3, [256 x float]* %_09, [256 x float]* %_110, [256 x float]* %_211, [256 x float]* %_312)
  ret void
}

declare void @apatb_fft_hw([256 x float]*, [256 x float]*, [256 x float]*, [256 x float]*, [256 x float]*, [256 x float]*, [256 x float]*, [256 x float]*, [256 x float]*, [256 x float]*, [256 x float]*, [256 x float]*, [256 x float]*, [256 x float]*, [256 x float]*, [256 x float]*)

; Function Attrs: argmemonly noinline norecurse
define internal void @copy_back([1024 x float]* noalias "orig.arg.no"="0", [256 x float]* noalias readonly "fpga.caller.interfaces"="layout_transformed" "orig.arg.no"="1" %_0, [256 x float]* noalias readonly "fpga.caller.interfaces"="layout_transformed" "orig.arg.no"="1" %_1, [256 x float]* noalias readonly "fpga.caller.interfaces"="layout_transformed" "orig.arg.no"="1" %_2, [256 x float]* noalias readonly "fpga.caller.interfaces"="layout_transformed" "orig.arg.no"="1" %_3, [1024 x float]* noalias "orig.arg.no"="2", [256 x float]* noalias readonly "fpga.caller.interfaces"="layout_transformed" "orig.arg.no"="3" %_01, [256 x float]* noalias readonly "fpga.caller.interfaces"="layout_transformed" "orig.arg.no"="3" %_12, [256 x float]* noalias readonly "fpga.caller.interfaces"="layout_transformed" "orig.arg.no"="3" %_23, [256 x float]* noalias readonly "fpga.caller.interfaces"="layout_transformed" "orig.arg.no"="3" %_34, [1024 x float]* noalias "orig.arg.no"="4", [256 x float]* noalias readonly "fpga.caller.interfaces"="layout_transformed" "orig.arg.no"="5" %_05, [256 x float]* noalias readonly "fpga.caller.interfaces"="layout_transformed" "orig.arg.no"="5" %_16, [256 x float]* noalias readonly "fpga.caller.interfaces"="layout_transformed" "orig.arg.no"="5" %_27, [256 x float]* noalias readonly "fpga.caller.interfaces"="layout_transformed" "orig.arg.no"="5" %_38, [1024 x float]* noalias "orig.arg.no"="6", [256 x float]* noalias readonly "fpga.caller.interfaces"="layout_transformed" "orig.arg.no"="7" %_09, [256 x float]* noalias readonly "fpga.caller.interfaces"="layout_transformed" "orig.arg.no"="7" %_110, [256 x float]* noalias readonly "fpga.caller.interfaces"="layout_transformed" "orig.arg.no"="7" %_211, [256 x float]* noalias readonly "fpga.caller.interfaces"="layout_transformed" "orig.arg.no"="7" %_312) #4 {
entry:
  call void @onebyonecpy_hls.p0a1024f32.12.13([1024 x float]* %2, [256 x float]* %_05, [256 x float]* %_16, [256 x float]* %_27, [256 x float]* %_38)
  call void @onebyonecpy_hls.p0a1024f32.12.13([1024 x float]* %3, [256 x float]* %_09, [256 x float]* %_110, [256 x float]* %_211, [256 x float]* %_312)
  ret void
}

define void @fft_hw_stub_wrapper([256 x float]*, [256 x float]*, [256 x float]*, [256 x float]*, [256 x float]*, [256 x float]*, [256 x float]*, [256 x float]*, [256 x float]*, [256 x float]*, [256 x float]*, [256 x float]*, [256 x float]*, [256 x float]*, [256 x float]*, [256 x float]*) #5 {
entry:
  %malloccall = tail call i8* @malloc(i64 4096)
  %16 = bitcast i8* %malloccall to [1024 x float]*
  %malloccall1 = tail call i8* @malloc(i64 4096)
  %17 = bitcast i8* %malloccall1 to [1024 x float]*
  %malloccall2 = tail call i8* @malloc(i64 4096)
  %18 = bitcast i8* %malloccall2 to [1024 x float]*
  %malloccall3 = tail call i8* @malloc(i64 4096)
  %19 = bitcast i8* %malloccall3 to [1024 x float]*
  call void @copy_out([1024 x float]* %16, [256 x float]* %0, [256 x float]* %1, [256 x float]* %2, [256 x float]* %3, [1024 x float]* %17, [256 x float]* %4, [256 x float]* %5, [256 x float]* %6, [256 x float]* %7, [1024 x float]* %18, [256 x float]* %8, [256 x float]* %9, [256 x float]* %10, [256 x float]* %11, [1024 x float]* %19, [256 x float]* %12, [256 x float]* %13, [256 x float]* %14, [256 x float]* %15)
  %20 = bitcast [1024 x float]* %16 to float*
  %21 = bitcast [1024 x float]* %17 to float*
  %22 = bitcast [1024 x float]* %18 to float*
  %23 = bitcast [1024 x float]* %19 to float*
  call void @fft_hw_stub(float* %20, float* %21, float* %22, float* %23)
  call void @copy_in([1024 x float]* %16, [256 x float]* %0, [256 x float]* %1, [256 x float]* %2, [256 x float]* %3, [1024 x float]* %17, [256 x float]* %4, [256 x float]* %5, [256 x float]* %6, [256 x float]* %7, [1024 x float]* %18, [256 x float]* %8, [256 x float]* %9, [256 x float]* %10, [256 x float]* %11, [1024 x float]* %19, [256 x float]* %12, [256 x float]* %13, [256 x float]* %14, [256 x float]* %15)
  ret void
}

declare void @fft_hw_stub(float*, float*, float*, float*)

attributes #0 = { inaccessiblememonly nounwind }
attributes #1 = { noinline "fpga.wrapper.func"="wrapper" }
attributes #2 = { argmemonly noinline norecurse "fpga.wrapper.func"="onebyonecpy_hls" }
attributes #3 = { argmemonly noinline norecurse "fpga.wrapper.func"="copyin" }
attributes #4 = { argmemonly noinline norecurse "fpga.wrapper.func"="copyout" }
attributes #5 = { "fpga.wrapper.func"="stub" }

!llvm.dbg.cu = !{}
!llvm.ident = !{!0, !0, !0, !0, !0, !0, !0, !0, !0, !0, !0, !0, !0, !0, !0, !0, !0, !0, !0, !0, !0, !0, !0, !0, !0, !0, !0, !0, !0, !0, !0, !0, !0, !0, !0, !0, !0, !0, !0, !0, !0, !0, !0, !0, !0, !0, !0, !0, !0, !0, !0, !0, !0, !0, !0, !0, !0, !0, !0, !0, !0, !0, !0, !0, !0, !0, !0, !0, !0, !0, !0, !0, !0, !0, !0, !0, !0, !0, !0, !0, !0, !0, !0, !0, !0, !0, !0, !0, !0, !0, !0, !0, !0, !0, !0, !0, !0, !0, !0, !0, !0, !0, !0, !0, !0, !0, !0, !0, !0, !0, !0, !0, !0, !0, !0, !0, !0, !0, !0, !0, !0, !0, !0, !0, !0, !0, !0, !0, !0, !0, !0, !0, !0, !0, !0, !0, !0, !0, !0, !0, !0, !0, !0, !0, !0, !0, !0, !0, !0, !0, !0, !0, !0, !0, !0, !0, !0, !0, !0, !0, !0, !0, !0, !0, !0, !0, !0, !0, !0, !0, !0, !0, !0, !0, !0, !0, !0, !0, !0, !0, !0, !0, !0, !0, !0, !0, !0, !0, !0, !0, !0, !0, !0, !0, !0, !0, !0, !0, !0, !0, !0, !0, !0, !0, !0, !0, !0, !0, !0, !0, !0, !0, !0, !0, !0, !0, !0, !0, !0, !0, !0, !0, !0, !0, !0, !0, !0, !0, !0, !0, !0, !0, !0, !0, !0, !0, !0, !0, !0, !0, !0, !0, !0, !0, !0, !0, !0, !0, !0, !0, !0, !0, !0, !0, !0, !0, !0, !0, !0, !0, !0, !0, !0, !0, !0, !0, !0, !0, !0, !0, !0, !0, !0, !0, !0, !0, !0, !0, !0, !0, !0, !0, !0, !0, !0, !0, !0, !0, !0, !0, !0, !0, !0, !0, !0, !0, !0, !0, !0, !0, !0, !0, !0, !0, !0, !0, !0, !0, !0, !0, !0, !0, !0, !0, !0, !0, !0, !0, !0, !0, !0, !0, !0, !0, !0, !0, !0, !0, !0, !0, !0, !0, !0, !0, !0, !0, !0, !0, !0, !0, !0, !0, !0, !0, !0, !0, !0, !0, !0, !0, !0, !0, !0, !0, !0, !0, !0, !0, !0, !0, !0, !0, !0, !0, !0, !0, !0, !0, !0, !0, !0, !0, !0, !0, !0, !0, !0, !0, !0, !0, !0, !0, !0, !0, !0, !0, !0, !0, !0, !0, !0, !0, !0, !0, !0, !0, !0, !0, !0, !0, !0, !0, !0, !0, !0, !0, !0, !0, !0, !0, !0, !0, !0, !0, !0, !0, !0, !0, !0, !0, !0, !0, !0, !0, !0, !0, !0, !0, !0, !0, !0, !0, !0, !0, !0, !0, !0, !0, !0, !0, !0, !0, !0, !0, !0, !0, !0, !0, !0, !0, !0, !0, !0, !0, !0, !0, !0, !0, !0, !0, !0, !0, !0, !0, !0, !0, !0, !0, !0, !0, !0, !0, !0, !0, !0, !0, !0, !0, !0, !0, !0, !0, !0, !0, !0, !0, !0, !0, !0, !0, !0, !0, !0, !0, !0, !0, !0, !0, !0, !0, !0, !0, !0, !0, !0, !0, !0, !0, !0, !0, !0, !0, !0, !0, !0, !0, !0, !0, !0, !0, !0, !0, !0, !0, !0, !0, !0, !0, !0, !0, !0, !0, !0, !0, !0, !0, !0, !0, !0, !0, !0, !0, !0, !0, !0, !0, !0, !0, !0, !0, !0, !0, !0, !0, !0, !0, !0, !0, !0, !0, !0, !0, !0, !0, !0, !0, !0, !0, !0, !0, !0, !0, !0, !0, !0, !0, !0, !0, !0, !0, !0, !0, !0, !0, !0}
!llvm.module.flags = !{!1, !2, !3}
!blackbox_cfg = !{!4}

!0 = !{!"clang version 7.0.0 "}
!1 = !{i32 2, !"Dwarf Version", i32 4}
!2 = !{i32 2, !"Debug Info Version", i32 3}
!3 = !{i32 1, !"wchar_size", i32 4}
!4 = !{}
!5 = !DILocation(line: 86, column: 9, scope: !6)
!6 = distinct !DISubprogram(name: "fft", linkageName: "_Z3fftPfS_S_S_", scope: !7, file: !7, line: 43, type: !8, isLocal: false, isDefinition: true, scopeLine: 44, flags: DIFlagPrototyped, isOptimized: false, unit: !14, variables: !4)
!7 = !DIFile(filename: "../FFT/FFT/HLS/2_Skeleton_Restructured/fft.cpp", directory: "C:\5CUsers\5CShaneWu\5COneDrive\5CDesktop\5CDocuments\5CNTU\5CHLS\5ClabB")
!8 = !DISubroutineType(types: !9)
!9 = !{null, !10, !10, !10, !10}
!10 = !DIDerivedType(tag: DW_TAG_pointer_type, baseType: !11, size: 64)
!11 = !DIDerivedType(tag: DW_TAG_typedef, name: "DTYPE", file: !12, line: 4, baseType: !13)
!12 = !DIFile(filename: "../FFT/FFT/HLS/2_Skeleton_Restructured/fft.h", directory: "C:\5CUsers\5CShaneWu\5COneDrive\5CDesktop\5CDocuments\5CNTU\5CHLS\5ClabB")
!13 = !DIBasicType(name: "float", size: 32, encoding: DW_ATE_float)
!14 = distinct !DICompileUnit(language: DW_LANG_C_plus_plus, file: !15, producer: "clang version 7.0.0 ", isOptimized: true, runtimeVersion: 0, emissionKind: FullDebug, enums: !16, retainedTypes: !24, globals: !3567)
!15 = !DIFile(filename: "C:/Users/ShaneWu/OneDrive/Desktop/Documents/NTU/HLS/labB/hls_FFT_hardware/solution1/.autopilot/db\5Cfft.pp.0.cpp", directory: "C:\5CUsers\5CShaneWu\5COneDrive\5CDesktop\5CDocuments\5CNTU\5CHLS\5ClabB")
!16 = !{!17}
!17 = distinct !DICompositeType(tag: DW_TAG_enumeration_type, scope: !18, file: !7, line: 19, size: 32, elements: !22, identifier: "_ZTSN9LOG2_CEILILi1024EEUt_E")
!18 = distinct !DICompositeType(tag: DW_TAG_structure_type, name: "LOG2_CEIL<1024>", file: !7, line: 18, size: 8, flags: DIFlagTypePassByValue, elements: !4, templateParams: !19, identifier: "_ZTS9LOG2_CEILILi1024EE")
!19 = !{!20}
!20 = !DITemplateValueParameter(name: "N_VAL", type: !21, value: i32 1024)
!21 = !DIBasicType(name: "int", size: 32, encoding: DW_ATE_signed)
!22 = !{!23}
!23 = !DIEnumerator(name: "val", value: 10)
!24 = !{!25, !2136, !2137, !27, !526, !2684}
!25 = !DIDerivedType(tag: DW_TAG_typedef, name: "RetType", scope: !27, file: !26, line: 174, baseType: !2133)
!26 = !DIFile(filename: "E:/Xilinx/Vitis_HLS/2022.1/common/technology/autopilot\5Cap_int_base.h", directory: "C:\5CUsers\5CShaneWu\5COneDrive\5CDesktop\5CDocuments\5CNTU\5CHLS\5ClabB")
!27 = distinct !DICompositeType(tag: DW_TAG_structure_type, name: "ap_int_base<32, false>", file: !26, line: 154, size: 32, flags: DIFlagTypePassByValue, elements: !28, templateParams: !2019, identifier: "_ZTS11ap_int_baseILi32ELb0EE")
!28 = !{!29, !46, !48, !50, !55, !59, !62, !67, !72, !77, !82, !87, !90, !94, !99, !104, !111, !117, !122, !125, !129, !133, !136, !141, !145, !150, !151, !155, !158, !161, !164, !167, !170, !173, !176, !179, !182, !185, !188, !191, !194, !197, !200, !203, !206, !209, !212, !215, !216, !219, !222, !225, !228, !231, !234, !237, !240, !244, !245, !246, !247, !248, !251, !252, !255, !258, !259, !262, !263, !264, !265, !266, !267, !268, !271, !272, !273, !367, !368, !371, !1899, !1900, !1901, !2020, !2023, !2026, !2029, !2030, !2031, !2120, !2121, !2122, !2123, !2124, !2125, !2126, !2127, !2128, !2129, !2130}
!29 = !DIDerivedType(tag: DW_TAG_inheritance, scope: !27, baseType: !30)
!30 = distinct !DICompositeType(tag: DW_TAG_structure_type, name: "ssdm_int<32, false>", file: !31, line: 563, size: 32, flags: DIFlagTypePassByValue, elements: !32, templateParams: !42, identifier: "_ZTS8ssdm_intILi32ELb0EE")
!31 = !DIFile(filename: "E:/Xilinx/Vitis_HLS/2022.1/common/technology/autopilot\5Cap_common.h", directory: "C:\5CUsers\5CShaneWu\5COneDrive\5CDesktop\5CDocuments\5CNTU\5CHLS\5ClabB")
!32 = !{!33, !35, !39}
!33 = !DIDerivedType(tag: DW_TAG_member, name: "V", scope: !30, file: !31, line: 565, baseType: !34, size: 32)
!34 = !DIBasicType(name: "unsigned int", size: 32, encoding: DW_ATE_unsigned)
!35 = !DISubprogram(name: "ssdm_int", scope: !30, file: !31, line: 566, type: !36, isLocal: false, isDefinition: false, scopeLine: 566, flags: DIFlagPrototyped, isOptimized: false)
!36 = !DISubroutineType(types: !37)
!37 = !{null, !38}
!38 = !DIDerivedType(tag: DW_TAG_pointer_type, baseType: !30, size: 64, flags: DIFlagArtificial | DIFlagObjectPointer)
!39 = !DISubprogram(name: "ssdm_int", scope: !30, file: !31, line: 567, type: !40, isLocal: false, isDefinition: false, scopeLine: 567, flags: DIFlagPrototyped, isOptimized: false)
!40 = !DISubroutineType(types: !41)
!41 = !{null, !38, !34}
!42 = !{!43, !44}
!43 = !DITemplateValueParameter(name: "_AP_N", type: !21, value: i32 32)
!44 = !DITemplateValueParameter(name: "_AP_S", type: !45, value: i8 0)
!45 = !DIBasicType(name: "bool", size: 8, encoding: DW_ATE_boolean)
!46 = !DIDerivedType(tag: DW_TAG_member, name: "width", scope: !27, file: !26, line: 176, baseType: !47, flags: DIFlagStaticMember, extraData: i32 32)
!47 = !DIDerivedType(tag: DW_TAG_const_type, baseType: !21)
!48 = !DIDerivedType(tag: DW_TAG_member, name: "sign_flag", scope: !27, file: !26, line: 177, baseType: !49, flags: DIFlagStaticMember, extraData: i1 false)
!49 = !DIDerivedType(tag: DW_TAG_const_type, baseType: !45)
!50 = !DISubprogram(name: "countLeadingOnes", linkageName: "_ZNK11ap_int_baseILi32ELb0EE16countLeadingOnesEv", scope: !27, file: !26, line: 156, type: !51, isLocal: false, isDefinition: false, scopeLine: 156, flags: DIFlagPrivate | DIFlagPrototyped, isOptimized: false)
!51 = !DISubroutineType(types: !52)
!52 = !{!21, !53}
!53 = !DIDerivedType(tag: DW_TAG_pointer_type, baseType: !54, size: 64, flags: DIFlagArtificial | DIFlagObjectPointer)
!54 = !DIDerivedType(tag: DW_TAG_const_type, baseType: !27)
!55 = !DISubprogram(name: "ap_int_base", scope: !27, file: !26, line: 221, type: !56, isLocal: false, isDefinition: false, scopeLine: 221, flags: DIFlagPrototyped, isOptimized: false)
!56 = !DISubroutineType(types: !57)
!57 = !{null, !58}
!58 = !DIDerivedType(tag: DW_TAG_pointer_type, baseType: !27, size: 64, flags: DIFlagArtificial | DIFlagObjectPointer)
!59 = !DISubprogram(name: "ap_int_base", scope: !27, file: !26, line: 254, type: !60, isLocal: false, isDefinition: false, scopeLine: 254, flags: DIFlagPrototyped, isOptimized: false)
!60 = !DISubroutineType(types: !61)
!61 = !{null, !58, !49}
!62 = !DISubprogram(name: "ap_int_base", scope: !27, file: !26, line: 255, type: !63, isLocal: false, isDefinition: false, scopeLine: 255, flags: DIFlagPrototyped, isOptimized: false)
!63 = !DISubroutineType(types: !64)
!64 = !{null, !58, !65}
!65 = !DIDerivedType(tag: DW_TAG_const_type, baseType: !66)
!66 = !DIBasicType(name: "char", size: 8, encoding: DW_ATE_signed_char)
!67 = !DISubprogram(name: "ap_int_base", scope: !27, file: !26, line: 256, type: !68, isLocal: false, isDefinition: false, scopeLine: 256, flags: DIFlagPrototyped, isOptimized: false)
!68 = !DISubroutineType(types: !69)
!69 = !{null, !58, !70}
!70 = !DIDerivedType(tag: DW_TAG_const_type, baseType: !71)
!71 = !DIBasicType(name: "signed char", size: 8, encoding: DW_ATE_signed_char)
!72 = !DISubprogram(name: "ap_int_base", scope: !27, file: !26, line: 257, type: !73, isLocal: false, isDefinition: false, scopeLine: 257, flags: DIFlagPrototyped, isOptimized: false)
!73 = !DISubroutineType(types: !74)
!74 = !{null, !58, !75}
!75 = !DIDerivedType(tag: DW_TAG_const_type, baseType: !76)
!76 = !DIBasicType(name: "unsigned char", size: 8, encoding: DW_ATE_unsigned_char)
!77 = !DISubprogram(name: "ap_int_base", scope: !27, file: !26, line: 258, type: !78, isLocal: false, isDefinition: false, scopeLine: 258, flags: DIFlagPrototyped, isOptimized: false)
!78 = !DISubroutineType(types: !79)
!79 = !{null, !58, !80}
!80 = !DIDerivedType(tag: DW_TAG_const_type, baseType: !81)
!81 = !DIBasicType(name: "short", size: 16, encoding: DW_ATE_signed)
!82 = !DISubprogram(name: "ap_int_base", scope: !27, file: !26, line: 259, type: !83, isLocal: false, isDefinition: false, scopeLine: 259, flags: DIFlagPrototyped, isOptimized: false)
!83 = !DISubroutineType(types: !84)
!84 = !{null, !58, !85}
!85 = !DIDerivedType(tag: DW_TAG_const_type, baseType: !86)
!86 = !DIBasicType(name: "unsigned short", size: 16, encoding: DW_ATE_unsigned)
!87 = !DISubprogram(name: "ap_int_base", scope: !27, file: !26, line: 260, type: !88, isLocal: false, isDefinition: false, scopeLine: 260, flags: DIFlagPrototyped, isOptimized: false)
!88 = !DISubroutineType(types: !89)
!89 = !{null, !58, !47}
!90 = !DISubprogram(name: "ap_int_base", scope: !27, file: !26, line: 261, type: !91, isLocal: false, isDefinition: false, scopeLine: 261, flags: DIFlagPrototyped, isOptimized: false)
!91 = !DISubroutineType(types: !92)
!92 = !{null, !58, !93}
!93 = !DIDerivedType(tag: DW_TAG_const_type, baseType: !34)
!94 = !DISubprogram(name: "ap_int_base", scope: !27, file: !26, line: 262, type: !95, isLocal: false, isDefinition: false, scopeLine: 262, flags: DIFlagPrototyped, isOptimized: false)
!95 = !DISubroutineType(types: !96)
!96 = !{null, !58, !97}
!97 = !DIDerivedType(tag: DW_TAG_const_type, baseType: !98)
!98 = !DIBasicType(name: "long int", size: 64, encoding: DW_ATE_signed)
!99 = !DISubprogram(name: "ap_int_base", scope: !27, file: !26, line: 263, type: !100, isLocal: false, isDefinition: false, scopeLine: 263, flags: DIFlagPrototyped, isOptimized: false)
!100 = !DISubroutineType(types: !101)
!101 = !{null, !58, !102}
!102 = !DIDerivedType(tag: DW_TAG_const_type, baseType: !103)
!103 = !DIBasicType(name: "long unsigned int", size: 64, encoding: DW_ATE_unsigned)
!104 = !DISubprogram(name: "ap_int_base", scope: !27, file: !26, line: 264, type: !105, isLocal: false, isDefinition: false, scopeLine: 264, flags: DIFlagPrototyped, isOptimized: false)
!105 = !DISubroutineType(types: !106)
!106 = !{null, !58, !107}
!107 = !DIDerivedType(tag: DW_TAG_const_type, baseType: !108)
!108 = !DIDerivedType(tag: DW_TAG_typedef, name: "ap_slong", file: !109, line: 233, baseType: !110)
!109 = !DIFile(filename: "E:/Xilinx/Vitis_HLS/2022.1/common/technology/autopilot\5Cap_decl.h", directory: "C:\5CUsers\5CShaneWu\5COneDrive\5CDesktop\5CDocuments\5CNTU\5CHLS\5ClabB")
!110 = !DIBasicType(name: "long long int", size: 64, encoding: DW_ATE_signed)
!111 = !DISubprogram(name: "ap_int_base", scope: !27, file: !26, line: 265, type: !112, isLocal: false, isDefinition: false, scopeLine: 265, flags: DIFlagPrototyped, isOptimized: false)
!112 = !DISubroutineType(types: !113)
!113 = !{null, !58, !114}
!114 = !DIDerivedType(tag: DW_TAG_const_type, baseType: !115)
!115 = !DIDerivedType(tag: DW_TAG_typedef, name: "ap_ulong", file: !109, line: 234, baseType: !116)
!116 = !DIBasicType(name: "long long unsigned int", size: 64, encoding: DW_ATE_unsigned)
!117 = !DISubprogram(name: "ap_int_base", scope: !27, file: !26, line: 270, type: !118, isLocal: false, isDefinition: false, scopeLine: 270, flags: DIFlagPrototyped, isOptimized: false)
!118 = !DISubroutineType(types: !119)
!119 = !{null, !58, !120}
!120 = !DIDerivedType(tag: DW_TAG_typedef, name: "half", file: !31, line: 657, baseType: !121)
!121 = !DIBasicType(name: "__fp16", size: 16, encoding: DW_ATE_float)
!122 = !DISubprogram(name: "ap_int_base", scope: !27, file: !26, line: 276, type: !123, isLocal: false, isDefinition: false, scopeLine: 276, flags: DIFlagPrototyped, isOptimized: false)
!123 = !DISubroutineType(types: !124)
!124 = !{null, !58, !13}
!125 = !DISubprogram(name: "ap_int_base", scope: !27, file: !26, line: 335, type: !126, isLocal: false, isDefinition: false, scopeLine: 335, flags: DIFlagPrototyped, isOptimized: false)
!126 = !DISubroutineType(types: !127)
!127 = !{null, !58, !128}
!128 = !DIBasicType(name: "double", size: 64, encoding: DW_ATE_float)
!129 = !DISubprogram(name: "ap_int_base", scope: !27, file: !26, line: 431, type: !130, isLocal: false, isDefinition: false, scopeLine: 431, flags: DIFlagPrototyped, isOptimized: false)
!130 = !DISubroutineType(types: !131)
!131 = !{null, !58, !132}
!132 = !DIDerivedType(tag: DW_TAG_pointer_type, baseType: !65, size: 64)
!133 = !DISubprogram(name: "ap_int_base", scope: !27, file: !26, line: 437, type: !134, isLocal: false, isDefinition: false, scopeLine: 437, flags: DIFlagPrototyped, isOptimized: false)
!134 = !DISubroutineType(types: !135)
!135 = !{null, !58, !132, !71}
!136 = !DISubprogram(name: "read", linkageName: "_ZNV11ap_int_baseILi32ELb0EE4readEv", scope: !27, file: !26, line: 459, type: !137, isLocal: false, isDefinition: false, scopeLine: 459, flags: DIFlagPrototyped, isOptimized: false)
!137 = !DISubroutineType(types: !138)
!138 = !{!27, !139}
!139 = !DIDerivedType(tag: DW_TAG_pointer_type, baseType: !140, size: 64, flags: DIFlagArtificial | DIFlagObjectPointer)
!140 = !DIDerivedType(tag: DW_TAG_volatile_type, baseType: !27)
!141 = !DISubprogram(name: "write", linkageName: "_ZNV11ap_int_baseILi32ELb0EE5writeERKS0_", scope: !27, file: !26, line: 466, type: !142, isLocal: false, isDefinition: false, scopeLine: 466, flags: DIFlagPrototyped, isOptimized: false)
!142 = !DISubroutineType(types: !143)
!143 = !{null, !139, !144}
!144 = !DIDerivedType(tag: DW_TAG_reference_type, baseType: !54, size: 64)
!145 = !DISubprogram(name: "operator=", linkageName: "_ZNV11ap_int_baseILi32ELb0EEaSERVKS0_", scope: !27, file: !26, line: 478, type: !146, isLocal: false, isDefinition: false, scopeLine: 478, flags: DIFlagPrototyped, isOptimized: false)
!146 = !DISubroutineType(types: !147)
!147 = !{null, !139, !148}
!148 = !DIDerivedType(tag: DW_TAG_reference_type, baseType: !149, size: 64)
!149 = !DIDerivedType(tag: DW_TAG_const_type, baseType: !140)
!150 = !DISubprogram(name: "operator=", linkageName: "_ZNV11ap_int_baseILi32ELb0EEaSERKS0_", scope: !27, file: !26, line: 488, type: !142, isLocal: false, isDefinition: false, scopeLine: 488, flags: DIFlagPrototyped, isOptimized: false)
!151 = !DISubprogram(name: "operator=", linkageName: "_ZN11ap_int_baseILi32ELb0EEaSERVKS0_", scope: !27, file: !26, line: 505, type: !152, isLocal: false, isDefinition: false, scopeLine: 505, flags: DIFlagPrototyped, isOptimized: false)
!152 = !DISubroutineType(types: !153)
!153 = !{!154, !58, !148}
!154 = !DIDerivedType(tag: DW_TAG_reference_type, baseType: !27, size: 64)
!155 = !DISubprogram(name: "operator=", linkageName: "_ZN11ap_int_baseILi32ELb0EEaSERKS0_", scope: !27, file: !26, line: 511, type: !156, isLocal: false, isDefinition: false, scopeLine: 511, flags: DIFlagPrototyped, isOptimized: false)
!156 = !DISubroutineType(types: !157)
!157 = !{!154, !58, !144}
!158 = !DISubprogram(name: "operator=", linkageName: "_ZN11ap_int_baseILi32ELb0EEaSEb", scope: !27, file: !26, line: 525, type: !159, isLocal: false, isDefinition: false, scopeLine: 525, flags: DIFlagPrototyped, isOptimized: false)
!159 = !DISubroutineType(types: !160)
!160 = !{!154, !58, !45}
!161 = !DISubprogram(name: "operator=", linkageName: "_ZN11ap_int_baseILi32ELb0EEaSEc", scope: !27, file: !26, line: 526, type: !162, isLocal: false, isDefinition: false, scopeLine: 526, flags: DIFlagPrototyped, isOptimized: false)
!162 = !DISubroutineType(types: !163)
!163 = !{!154, !58, !66}
!164 = !DISubprogram(name: "operator=", linkageName: "_ZN11ap_int_baseILi32ELb0EEaSEa", scope: !27, file: !26, line: 527, type: !165, isLocal: false, isDefinition: false, scopeLine: 527, flags: DIFlagPrototyped, isOptimized: false)
!165 = !DISubroutineType(types: !166)
!166 = !{!154, !58, !71}
!167 = !DISubprogram(name: "operator=", linkageName: "_ZN11ap_int_baseILi32ELb0EEaSEh", scope: !27, file: !26, line: 528, type: !168, isLocal: false, isDefinition: false, scopeLine: 528, flags: DIFlagPrototyped, isOptimized: false)
!168 = !DISubroutineType(types: !169)
!169 = !{!154, !58, !76}
!170 = !DISubprogram(name: "operator=", linkageName: "_ZN11ap_int_baseILi32ELb0EEaSEs", scope: !27, file: !26, line: 529, type: !171, isLocal: false, isDefinition: false, scopeLine: 529, flags: DIFlagPrototyped, isOptimized: false)
!171 = !DISubroutineType(types: !172)
!172 = !{!154, !58, !81}
!173 = !DISubprogram(name: "operator=", linkageName: "_ZN11ap_int_baseILi32ELb0EEaSEt", scope: !27, file: !26, line: 530, type: !174, isLocal: false, isDefinition: false, scopeLine: 530, flags: DIFlagPrototyped, isOptimized: false)
!174 = !DISubroutineType(types: !175)
!175 = !{!154, !58, !86}
!176 = !DISubprogram(name: "operator=", linkageName: "_ZN11ap_int_baseILi32ELb0EEaSEi", scope: !27, file: !26, line: 531, type: !177, isLocal: false, isDefinition: false, scopeLine: 531, flags: DIFlagPrototyped, isOptimized: false)
!177 = !DISubroutineType(types: !178)
!178 = !{!154, !58, !21}
!179 = !DISubprogram(name: "operator=", linkageName: "_ZN11ap_int_baseILi32ELb0EEaSEj", scope: !27, file: !26, line: 532, type: !180, isLocal: false, isDefinition: false, scopeLine: 532, flags: DIFlagPrototyped, isOptimized: false)
!180 = !DISubroutineType(types: !181)
!181 = !{!154, !58, !34}
!182 = !DISubprogram(name: "operator=", linkageName: "_ZN11ap_int_baseILi32ELb0EEaSEl", scope: !27, file: !26, line: 533, type: !183, isLocal: false, isDefinition: false, scopeLine: 533, flags: DIFlagPrototyped, isOptimized: false)
!183 = !DISubroutineType(types: !184)
!184 = !{!154, !58, !98}
!185 = !DISubprogram(name: "operator=", linkageName: "_ZN11ap_int_baseILi32ELb0EEaSEm", scope: !27, file: !26, line: 534, type: !186, isLocal: false, isDefinition: false, scopeLine: 534, flags: DIFlagPrototyped, isOptimized: false)
!186 = !DISubroutineType(types: !187)
!187 = !{!154, !58, !103}
!188 = !DISubprogram(name: "operator=", linkageName: "_ZN11ap_int_baseILi32ELb0EEaSEx", scope: !27, file: !26, line: 535, type: !189, isLocal: false, isDefinition: false, scopeLine: 535, flags: DIFlagPrototyped, isOptimized: false)
!189 = !DISubroutineType(types: !190)
!190 = !{!154, !58, !108}
!191 = !DISubprogram(name: "operator=", linkageName: "_ZN11ap_int_baseILi32ELb0EEaSEy", scope: !27, file: !26, line: 536, type: !192, isLocal: false, isDefinition: false, scopeLine: 536, flags: DIFlagPrototyped, isOptimized: false)
!192 = !DISubroutineType(types: !193)
!193 = !{!154, !58, !115}
!194 = !DISubprogram(name: "operator unsigned long long", linkageName: "_ZNK11ap_int_baseILi32ELb0EEcvyEv", scope: !27, file: !26, line: 587, type: !195, isLocal: false, isDefinition: false, scopeLine: 587, flags: DIFlagPrototyped, isOptimized: false)
!195 = !DISubroutineType(types: !196)
!196 = !{!25, !53}
!197 = !DISubprogram(name: "to_bool", linkageName: "_ZNK11ap_int_baseILi32ELb0EE7to_boolEv", scope: !27, file: !26, line: 592, type: !198, isLocal: false, isDefinition: false, scopeLine: 592, flags: DIFlagPrototyped, isOptimized: false)
!198 = !DISubroutineType(types: !199)
!199 = !{!45, !53}
!200 = !DISubprogram(name: "to_char", linkageName: "_ZNK11ap_int_baseILi32ELb0EE7to_charEv", scope: !27, file: !26, line: 593, type: !201, isLocal: false, isDefinition: false, scopeLine: 593, flags: DIFlagPrototyped, isOptimized: false)
!201 = !DISubroutineType(types: !202)
!202 = !{!66, !53}
!203 = !DISubprogram(name: "to_schar", linkageName: "_ZNK11ap_int_baseILi32ELb0EE8to_scharEv", scope: !27, file: !26, line: 594, type: !204, isLocal: false, isDefinition: false, scopeLine: 594, flags: DIFlagPrototyped, isOptimized: false)
!204 = !DISubroutineType(types: !205)
!205 = !{!71, !53}
!206 = !DISubprogram(name: "to_uchar", linkageName: "_ZNK11ap_int_baseILi32ELb0EE8to_ucharEv", scope: !27, file: !26, line: 595, type: !207, isLocal: false, isDefinition: false, scopeLine: 595, flags: DIFlagPrototyped, isOptimized: false)
!207 = !DISubroutineType(types: !208)
!208 = !{!76, !53}
!209 = !DISubprogram(name: "to_short", linkageName: "_ZNK11ap_int_baseILi32ELb0EE8to_shortEv", scope: !27, file: !26, line: 596, type: !210, isLocal: false, isDefinition: false, scopeLine: 596, flags: DIFlagPrototyped, isOptimized: false)
!210 = !DISubroutineType(types: !211)
!211 = !{!81, !53}
!212 = !DISubprogram(name: "to_ushort", linkageName: "_ZNK11ap_int_baseILi32ELb0EE9to_ushortEv", scope: !27, file: !26, line: 597, type: !213, isLocal: false, isDefinition: false, scopeLine: 597, flags: DIFlagPrototyped, isOptimized: false)
!213 = !DISubroutineType(types: !214)
!214 = !{!86, !53}
!215 = !DISubprogram(name: "to_int", linkageName: "_ZNK11ap_int_baseILi32ELb0EE6to_intEv", scope: !27, file: !26, line: 598, type: !51, isLocal: false, isDefinition: false, scopeLine: 598, flags: DIFlagPrototyped, isOptimized: false)
!216 = !DISubprogram(name: "to_uint", linkageName: "_ZNK11ap_int_baseILi32ELb0EE7to_uintEv", scope: !27, file: !26, line: 599, type: !217, isLocal: false, isDefinition: false, scopeLine: 599, flags: DIFlagPrototyped, isOptimized: false)
!217 = !DISubroutineType(types: !218)
!218 = !{!34, !53}
!219 = !DISubprogram(name: "to_long", linkageName: "_ZNK11ap_int_baseILi32ELb0EE7to_longEv", scope: !27, file: !26, line: 600, type: !220, isLocal: false, isDefinition: false, scopeLine: 600, flags: DIFlagPrototyped, isOptimized: false)
!220 = !DISubroutineType(types: !221)
!221 = !{!98, !53}
!222 = !DISubprogram(name: "to_ulong", linkageName: "_ZNK11ap_int_baseILi32ELb0EE8to_ulongEv", scope: !27, file: !26, line: 601, type: !223, isLocal: false, isDefinition: false, scopeLine: 601, flags: DIFlagPrototyped, isOptimized: false)
!223 = !DISubroutineType(types: !224)
!224 = !{!103, !53}
!225 = !DISubprogram(name: "to_int64", linkageName: "_ZNK11ap_int_baseILi32ELb0EE8to_int64Ev", scope: !27, file: !26, line: 602, type: !226, isLocal: false, isDefinition: false, scopeLine: 602, flags: DIFlagPrototyped, isOptimized: false)
!226 = !DISubroutineType(types: !227)
!227 = !{!108, !53}
!228 = !DISubprogram(name: "to_uint64", linkageName: "_ZNK11ap_int_baseILi32ELb0EE9to_uint64Ev", scope: !27, file: !26, line: 603, type: !229, isLocal: false, isDefinition: false, scopeLine: 603, flags: DIFlagPrototyped, isOptimized: false)
!229 = !DISubroutineType(types: !230)
!230 = !{!115, !53}
!231 = !DISubprogram(name: "to_half", linkageName: "_ZNK11ap_int_baseILi32ELb0EE7to_halfEv", scope: !27, file: !26, line: 604, type: !232, isLocal: false, isDefinition: false, scopeLine: 604, flags: DIFlagPrototyped, isOptimized: false)
!232 = !DISubroutineType(types: !233)
!233 = !{!120, !53}
!234 = !DISubprogram(name: "to_float", linkageName: "_ZNK11ap_int_baseILi32ELb0EE8to_floatEv", scope: !27, file: !26, line: 605, type: !235, isLocal: false, isDefinition: false, scopeLine: 605, flags: DIFlagPrototyped, isOptimized: false)
!235 = !DISubroutineType(types: !236)
!236 = !{!13, !53}
!237 = !DISubprogram(name: "to_double", linkageName: "_ZNK11ap_int_baseILi32ELb0EE9to_doubleEv", scope: !27, file: !26, line: 606, type: !238, isLocal: false, isDefinition: false, scopeLine: 606, flags: DIFlagPrototyped, isOptimized: false)
!238 = !DISubroutineType(types: !239)
!239 = !{!128, !53}
!240 = !DISubprogram(name: "length", linkageName: "_ZNVK11ap_int_baseILi32ELb0EE6lengthEv", scope: !27, file: !26, line: 630, type: !241, isLocal: false, isDefinition: false, scopeLine: 630, flags: DIFlagPrototyped, isOptimized: false)
!241 = !DISubroutineType(types: !242)
!242 = !{!21, !243}
!243 = !DIDerivedType(tag: DW_TAG_pointer_type, baseType: !149, size: 64, flags: DIFlagArtificial | DIFlagObjectPointer)
!244 = !DISubprogram(name: "length", linkageName: "_ZNK11ap_int_baseILi32ELb0EE6lengthEv", scope: !27, file: !26, line: 631, type: !51, isLocal: false, isDefinition: false, scopeLine: 631, flags: DIFlagPrototyped, isOptimized: false)
!245 = !DISubprogram(name: "iszero", linkageName: "_ZNK11ap_int_baseILi32ELb0EE6iszeroEv", scope: !27, file: !26, line: 634, type: !198, isLocal: false, isDefinition: false, scopeLine: 634, flags: DIFlagPrototyped, isOptimized: false)
!246 = !DISubprogram(name: "is_zero", linkageName: "_ZNK11ap_int_baseILi32ELb0EE7is_zeroEv", scope: !27, file: !26, line: 637, type: !198, isLocal: false, isDefinition: false, scopeLine: 637, flags: DIFlagPrototyped, isOptimized: false)
!247 = !DISubprogram(name: "sign", linkageName: "_ZNK11ap_int_baseILi32ELb0EE4signEv", scope: !27, file: !26, line: 640, type: !198, isLocal: false, isDefinition: false, scopeLine: 640, flags: DIFlagPrototyped, isOptimized: false)
!248 = !DISubprogram(name: "clear", linkageName: "_ZN11ap_int_baseILi32ELb0EE5clearEi", scope: !27, file: !26, line: 649, type: !249, isLocal: false, isDefinition: false, scopeLine: 649, flags: DIFlagPrototyped, isOptimized: false)
!249 = !DISubroutineType(types: !250)
!250 = !{null, !58, !21}
!251 = !DISubprogram(name: "invert", linkageName: "_ZN11ap_int_baseILi32ELb0EE6invertEi", scope: !27, file: !26, line: 655, type: !249, isLocal: false, isDefinition: false, scopeLine: 655, flags: DIFlagPrototyped, isOptimized: false)
!252 = !DISubprogram(name: "test", linkageName: "_ZNK11ap_int_baseILi32ELb0EE4testEi", scope: !27, file: !26, line: 664, type: !253, isLocal: false, isDefinition: false, scopeLine: 664, flags: DIFlagPrototyped, isOptimized: false)
!253 = !DISubroutineType(types: !254)
!254 = !{!45, !53, !21}
!255 = !DISubprogram(name: "get", linkageName: "_ZN11ap_int_baseILi32ELb0EE3getEv", scope: !27, file: !26, line: 670, type: !256, isLocal: false, isDefinition: false, scopeLine: 670, flags: DIFlagPrototyped, isOptimized: false)
!256 = !DISubroutineType(types: !257)
!257 = !{!154, !58}
!258 = !DISubprogram(name: "set", linkageName: "_ZN11ap_int_baseILi32ELb0EE3setEi", scope: !27, file: !26, line: 673, type: !249, isLocal: false, isDefinition: false, scopeLine: 673, flags: DIFlagPrototyped, isOptimized: false)
!259 = !DISubprogram(name: "set", linkageName: "_ZN11ap_int_baseILi32ELb0EE3setEib", scope: !27, file: !26, line: 679, type: !260, isLocal: false, isDefinition: false, scopeLine: 679, flags: DIFlagPrototyped, isOptimized: false)
!260 = !DISubroutineType(types: !261)
!261 = !{null, !58, !21, !45}
!262 = !DISubprogram(name: "lrotate", linkageName: "_ZN11ap_int_baseILi32ELb0EE7lrotateEi", scope: !27, file: !26, line: 686, type: !177, isLocal: false, isDefinition: false, scopeLine: 686, flags: DIFlagPrototyped, isOptimized: false)
!263 = !DISubprogram(name: "rrotate", linkageName: "_ZN11ap_int_baseILi32ELb0EE7rrotateEi", scope: !27, file: !26, line: 701, type: !177, isLocal: false, isDefinition: false, scopeLine: 701, flags: DIFlagPrototyped, isOptimized: false)
!264 = !DISubprogram(name: "reverse", linkageName: "_ZN11ap_int_baseILi32ELb0EE7reverseEv", scope: !27, file: !26, line: 716, type: !256, isLocal: false, isDefinition: false, scopeLine: 716, flags: DIFlagPrototyped, isOptimized: false)
!265 = !DISubprogram(name: "set_bit", linkageName: "_ZN11ap_int_baseILi32ELb0EE7set_bitEib", scope: !27, file: !26, line: 722, type: !260, isLocal: false, isDefinition: false, scopeLine: 722, flags: DIFlagPrototyped, isOptimized: false)
!266 = !DISubprogram(name: "get_bit", linkageName: "_ZNK11ap_int_baseILi32ELb0EE7get_bitEi", scope: !27, file: !26, line: 727, type: !253, isLocal: false, isDefinition: false, scopeLine: 727, flags: DIFlagPrototyped, isOptimized: false)
!267 = !DISubprogram(name: "b_not", linkageName: "_ZN11ap_int_baseILi32ELb0EE5b_notEv", scope: !27, file: !26, line: 732, type: !56, isLocal: false, isDefinition: false, scopeLine: 732, flags: DIFlagPrototyped, isOptimized: false)
!268 = !DISubprogram(name: "checkOverflowCsim", linkageName: "_ZNK11ap_int_baseILi32ELb0EE17checkOverflowCsimEibb", scope: !27, file: !26, line: 806, type: !269, isLocal: false, isDefinition: false, scopeLine: 806, flags: DIFlagPrototyped, isOptimized: false)
!269 = !DISubroutineType(types: !270)
!270 = !{!45, !53, !21, !45, !45}
!271 = !DISubprogram(name: "operator++", linkageName: "_ZN11ap_int_baseILi32ELb0EEppEv", scope: !27, file: !26, line: 911, type: !256, isLocal: false, isDefinition: false, scopeLine: 911, flags: DIFlagPrototyped, isOptimized: false)
!272 = !DISubprogram(name: "operator--", linkageName: "_ZN11ap_int_baseILi32ELb0EEmmEv", scope: !27, file: !26, line: 915, type: !256, isLocal: false, isDefinition: false, scopeLine: 915, flags: DIFlagPrototyped, isOptimized: false)
!273 = !DISubprogram(name: "operator++", linkageName: "_ZN11ap_int_baseILi32ELb0EEppEi", scope: !27, file: !26, line: 923, type: !274, isLocal: false, isDefinition: false, scopeLine: 923, flags: DIFlagPrototyped, isOptimized: false)
!274 = !DISubroutineType(types: !275)
!275 = !{!276, !58, !21}
!276 = !DIDerivedType(tag: DW_TAG_const_type, baseType: !277)
!277 = !DIDerivedType(tag: DW_TAG_typedef, name: "arg1", scope: !278, file: !26, line: 213, baseType: !282)
!278 = distinct !DICompositeType(tag: DW_TAG_structure_type, name: "RType<32, false>", scope: !27, file: !26, line: 180, size: 8, flags: DIFlagTypePassByValue, elements: !4, templateParams: !279, identifier: "_ZTSN11ap_int_baseILi32ELb0EE5RTypeILi32ELb0EEE")
!279 = !{!280, !281}
!280 = !DITemplateValueParameter(name: "_AP_W2", type: !21, value: i32 32)
!281 = !DITemplateValueParameter(name: "_AP_S2", type: !45, value: i8 0)
!282 = !DIDerivedType(tag: DW_TAG_typedef, name: "type", scope: !283, file: !26, line: 151, baseType: !284)
!283 = distinct !DICompositeType(tag: DW_TAG_structure_type, name: "_ap_int_factory<32, false>", file: !26, line: 151, size: 8, flags: DIFlagTypePassByValue, elements: !4, templateParams: !279, identifier: "_ZTS15_ap_int_factoryILi32ELb0EE")
!284 = distinct !DICompositeType(tag: DW_TAG_structure_type, name: "ap_uint<32>", file: !285, line: 227, size: 32, flags: DIFlagTypePassByValue, elements: !286, templateParams: !365, identifier: "_ZTS7ap_uintILi32EE")
!285 = !DIFile(filename: "E:/Xilinx/Vitis_HLS/2022.1/common/technology/autopilot\5Cap_int.h", directory: "C:\5CUsers\5CShaneWu\5COneDrive\5CDesktop\5CDocuments\5CNTU\5CHLS\5ClabB")
!286 = !{!287, !288, !292, !295, !298, !301, !304, !307, !310, !313, !316, !319, !322, !325, !328, !331, !334, !337, !340, !343, !346, !352, !358, !362}
!287 = !DIDerivedType(tag: DW_TAG_inheritance, scope: !284, baseType: !27)
!288 = !DISubprogram(name: "ap_uint", scope: !284, file: !285, line: 230, type: !289, isLocal: false, isDefinition: false, scopeLine: 230, flags: DIFlagPrototyped, isOptimized: false)
!289 = !DISubroutineType(types: !290)
!290 = !{null, !291}
!291 = !DIDerivedType(tag: DW_TAG_pointer_type, baseType: !284, size: 64, flags: DIFlagArtificial | DIFlagObjectPointer)
!292 = !DISubprogram(name: "ap_uint", scope: !284, file: !285, line: 258, type: !293, isLocal: false, isDefinition: false, scopeLine: 258, flags: DIFlagPrototyped, isOptimized: false)
!293 = !DISubroutineType(types: !294)
!294 = !{null, !291, !34, !45}
!295 = !DISubprogram(name: "ap_uint", scope: !284, file: !285, line: 327, type: !296, isLocal: false, isDefinition: false, scopeLine: 327, flags: DIFlagPrototyped, isOptimized: false)
!296 = !DISubroutineType(types: !297)
!297 = !{null, !291, !45}
!298 = !DISubprogram(name: "ap_uint", scope: !284, file: !285, line: 328, type: !299, isLocal: false, isDefinition: false, scopeLine: 328, flags: DIFlagPrototyped, isOptimized: false)
!299 = !DISubroutineType(types: !300)
!300 = !{null, !291, !66}
!301 = !DISubprogram(name: "ap_uint", scope: !284, file: !285, line: 329, type: !302, isLocal: false, isDefinition: false, scopeLine: 329, flags: DIFlagPrototyped, isOptimized: false)
!302 = !DISubroutineType(types: !303)
!303 = !{null, !291, !71}
!304 = !DISubprogram(name: "ap_uint", scope: !284, file: !285, line: 330, type: !305, isLocal: false, isDefinition: false, scopeLine: 330, flags: DIFlagPrototyped, isOptimized: false)
!305 = !DISubroutineType(types: !306)
!306 = !{null, !291, !76}
!307 = !DISubprogram(name: "ap_uint", scope: !284, file: !285, line: 331, type: !308, isLocal: false, isDefinition: false, scopeLine: 331, flags: DIFlagPrototyped, isOptimized: false)
!308 = !DISubroutineType(types: !309)
!309 = !{null, !291, !81}
!310 = !DISubprogram(name: "ap_uint", scope: !284, file: !285, line: 332, type: !311, isLocal: false, isDefinition: false, scopeLine: 332, flags: DIFlagPrototyped, isOptimized: false)
!311 = !DISubroutineType(types: !312)
!312 = !{null, !291, !86}
!313 = !DISubprogram(name: "ap_uint", scope: !284, file: !285, line: 333, type: !314, isLocal: false, isDefinition: false, scopeLine: 333, flags: DIFlagPrototyped, isOptimized: false)
!314 = !DISubroutineType(types: !315)
!315 = !{null, !291, !21}
!316 = !DISubprogram(name: "ap_uint", scope: !284, file: !285, line: 334, type: !317, isLocal: false, isDefinition: false, scopeLine: 334, flags: DIFlagPrototyped, isOptimized: false)
!317 = !DISubroutineType(types: !318)
!318 = !{null, !291, !34}
!319 = !DISubprogram(name: "ap_uint", scope: !284, file: !285, line: 335, type: !320, isLocal: false, isDefinition: false, scopeLine: 335, flags: DIFlagPrototyped, isOptimized: false)
!320 = !DISubroutineType(types: !321)
!321 = !{null, !291, !98}
!322 = !DISubprogram(name: "ap_uint", scope: !284, file: !285, line: 336, type: !323, isLocal: false, isDefinition: false, scopeLine: 336, flags: DIFlagPrototyped, isOptimized: false)
!323 = !DISubroutineType(types: !324)
!324 = !{null, !291, !103}
!325 = !DISubprogram(name: "ap_uint", scope: !284, file: !285, line: 337, type: !326, isLocal: false, isDefinition: false, scopeLine: 337, flags: DIFlagPrototyped, isOptimized: false)
!326 = !DISubroutineType(types: !327)
!327 = !{null, !291, !108}
!328 = !DISubprogram(name: "ap_uint", scope: !284, file: !285, line: 338, type: !329, isLocal: false, isDefinition: false, scopeLine: 338, flags: DIFlagPrototyped, isOptimized: false)
!329 = !DISubroutineType(types: !330)
!330 = !{null, !291, !115}
!331 = !DISubprogram(name: "ap_uint", scope: !284, file: !285, line: 340, type: !332, isLocal: false, isDefinition: false, scopeLine: 340, flags: DIFlagPrototyped, isOptimized: false)
!332 = !DISubroutineType(types: !333)
!333 = !{null, !291, !128}
!334 = !DISubprogram(name: "ap_uint", scope: !284, file: !285, line: 341, type: !335, isLocal: false, isDefinition: false, scopeLine: 341, flags: DIFlagPrototyped, isOptimized: false)
!335 = !DISubroutineType(types: !336)
!336 = !{null, !291, !13}
!337 = !DISubprogram(name: "ap_uint", scope: !284, file: !285, line: 342, type: !338, isLocal: false, isDefinition: false, scopeLine: 342, flags: DIFlagPrototyped, isOptimized: false)
!338 = !DISubroutineType(types: !339)
!339 = !{null, !291, !120}
!340 = !DISubprogram(name: "ap_uint", scope: !284, file: !285, line: 345, type: !341, isLocal: false, isDefinition: false, scopeLine: 345, flags: DIFlagPrototyped, isOptimized: false)
!341 = !DISubroutineType(types: !342)
!342 = !{null, !291, !132}
!343 = !DISubprogram(name: "ap_uint", scope: !284, file: !285, line: 347, type: !344, isLocal: false, isDefinition: false, scopeLine: 347, flags: DIFlagPrototyped, isOptimized: false)
!344 = !DISubroutineType(types: !345)
!345 = !{null, !291, !132, !71}
!346 = !DISubprogram(name: "operator=", linkageName: "_ZN7ap_uintILi32EEaSERKS0_", scope: !284, file: !285, line: 353, type: !347, isLocal: false, isDefinition: false, scopeLine: 353, flags: DIFlagPrototyped, isOptimized: false)
!347 = !DISubroutineType(types: !348)
!348 = !{!349, !291, !350}
!349 = !DIDerivedType(tag: DW_TAG_reference_type, baseType: !284, size: 64)
!350 = !DIDerivedType(tag: DW_TAG_reference_type, baseType: !351, size: 64)
!351 = !DIDerivedType(tag: DW_TAG_const_type, baseType: !284)
!352 = !DISubprogram(name: "operator=", linkageName: "_ZN7ap_uintILi32EEaSERVKS0_", scope: !284, file: !285, line: 363, type: !353, isLocal: false, isDefinition: false, scopeLine: 363, flags: DIFlagPrototyped, isOptimized: false)
!353 = !DISubroutineType(types: !354)
!354 = !{!349, !291, !355}
!355 = !DIDerivedType(tag: DW_TAG_reference_type, baseType: !356, size: 64)
!356 = !DIDerivedType(tag: DW_TAG_const_type, baseType: !357)
!357 = !DIDerivedType(tag: DW_TAG_volatile_type, baseType: !284)
!358 = !DISubprogram(name: "operator=", linkageName: "_ZNV7ap_uintILi32EEaSERKS0_", scope: !284, file: !285, line: 369, type: !359, isLocal: false, isDefinition: false, scopeLine: 369, flags: DIFlagPrototyped, isOptimized: false)
!359 = !DISubroutineType(types: !360)
!360 = !{null, !361, !350}
!361 = !DIDerivedType(tag: DW_TAG_pointer_type, baseType: !357, size: 64, flags: DIFlagArtificial | DIFlagObjectPointer)
!362 = !DISubprogram(name: "operator=", linkageName: "_ZNV7ap_uintILi32EEaSERVKS0_", scope: !284, file: !285, line: 373, type: !363, isLocal: false, isDefinition: false, scopeLine: 373, flags: DIFlagPrototyped, isOptimized: false)
!363 = !DISubroutineType(types: !364)
!364 = !{null, !361, !355}
!365 = !{!366}
!366 = !DITemplateValueParameter(name: "_AP_W", type: !21, value: i32 32)
!367 = !DISubprogram(name: "operator--", linkageName: "_ZN11ap_int_baseILi32ELb0EEmmEi", scope: !27, file: !26, line: 928, type: !274, isLocal: false, isDefinition: false, scopeLine: 928, flags: DIFlagPrototyped, isOptimized: false)
!368 = !DISubprogram(name: "operator+", linkageName: "_ZNK11ap_int_baseILi32ELb0EEpsEv", scope: !27, file: !26, line: 937, type: !369, isLocal: false, isDefinition: false, scopeLine: 937, flags: DIFlagPrototyped, isOptimized: false)
!369 = !DISubroutineType(types: !370)
!370 = !{!277, !53}
!371 = !DISubprogram(name: "operator-", linkageName: "_ZNK11ap_int_baseILi32ELb0EEngEv", scope: !27, file: !26, line: 940, type: !372, isLocal: false, isDefinition: false, scopeLine: 940, flags: DIFlagPrototyped, isOptimized: false)
!372 = !DISubroutineType(types: !373)
!373 = !{!374, !53}
!374 = !DIDerivedType(tag: DW_TAG_typedef, name: "minus", scope: !375, file: !26, line: 209, baseType: !378)
!375 = distinct !DICompositeType(tag: DW_TAG_structure_type, name: "RType<1, false>", scope: !27, file: !26, line: 180, size: 8, flags: DIFlagTypePassByValue, elements: !4, templateParams: !376, identifier: "_ZTSN11ap_int_baseILi32ELb0EE5RTypeILi1ELb0EEE")
!376 = !{!377, !281}
!377 = !DITemplateValueParameter(name: "_AP_W2", type: !21, value: i32 1)
!378 = !DIDerivedType(tag: DW_TAG_typedef, name: "type", scope: !379, file: !26, line: 149, baseType: !383)
!379 = distinct !DICompositeType(tag: DW_TAG_structure_type, name: "_ap_int_factory<33, true>", file: !26, line: 149, size: 8, flags: DIFlagTypePassByValue, elements: !4, templateParams: !380, identifier: "_ZTS15_ap_int_factoryILi33ELb1EE")
!380 = !{!381, !382}
!381 = !DITemplateValueParameter(name: "_AP_W2", type: !21, value: i32 33)
!382 = !DITemplateValueParameter(name: "_AP_S2", type: !45, value: i8 1)
!383 = distinct !DICompositeType(tag: DW_TAG_structure_type, name: "ap_int<33>", file: !285, line: 64, size: 64, flags: DIFlagTypePassByValue, elements: !384, templateParams: !1898, identifier: "_ZTS6ap_intILi33EE")
!384 = !{!385, !1820, !1824, !1828, !1831, !1834, !1837, !1840, !1843, !1846, !1849, !1852, !1855, !1858, !1861, !1864, !1867, !1870, !1873, !1876, !1879, !1885, !1891, !1895}
!385 = !DIDerivedType(tag: DW_TAG_inheritance, scope: !383, baseType: !386)
!386 = distinct !DICompositeType(tag: DW_TAG_structure_type, name: "ap_int_base<33, true>", file: !26, line: 154, size: 64, flags: DIFlagTypePassByValue, elements: !387, templateParams: !1805, identifier: "_ZTS11ap_int_baseILi33ELb1EE")
!387 = !{!388, !403, !404, !405, !410, !414, !417, !420, !423, !426, !429, !432, !435, !438, !441, !444, !447, !450, !453, !456, !459, !462, !465, !470, !474, !479, !480, !484, !487, !490, !493, !496, !499, !502, !505, !508, !511, !514, !517, !520, !523, !531, !534, !537, !540, !543, !546, !549, !550, !553, !556, !559, !562, !565, !568, !571, !574, !578, !579, !580, !581, !582, !585, !586, !589, !592, !593, !596, !597, !598, !599, !600, !601, !602, !605, !606, !607, !613, !614, !617, !1698, !1699, !1700, !1704, !1707, !1710, !1713, !1714, !1715, !1807, !1808, !1809, !1810, !1811, !1812, !1813, !1814, !1815, !1816, !1817}
!388 = !DIDerivedType(tag: DW_TAG_inheritance, scope: !386, baseType: !389)
!389 = distinct !DICompositeType(tag: DW_TAG_structure_type, name: "ssdm_int<33, true>", file: !31, line: 555, size: 64, flags: DIFlagTypePassByValue, elements: !390, templateParams: !400, identifier: "_ZTS8ssdm_intILi33ELb1EE")
!390 = !{!391, !393, !397}
!391 = !DIDerivedType(tag: DW_TAG_member, name: "V", scope: !389, file: !31, line: 557, baseType: !392, size: 33, align: 64)
!392 = !DIBasicType(name: "int33", size: 33, encoding: DW_ATE_signed)
!393 = !DISubprogram(name: "ssdm_int", scope: !389, file: !31, line: 558, type: !394, isLocal: false, isDefinition: false, scopeLine: 558, flags: DIFlagPrototyped, isOptimized: false)
!394 = !DISubroutineType(types: !395)
!395 = !{null, !396}
!396 = !DIDerivedType(tag: DW_TAG_pointer_type, baseType: !389, size: 64, flags: DIFlagArtificial | DIFlagObjectPointer)
!397 = !DISubprogram(name: "ssdm_int", scope: !389, file: !31, line: 559, type: !398, isLocal: false, isDefinition: false, scopeLine: 559, flags: DIFlagPrototyped, isOptimized: false)
!398 = !DISubroutineType(types: !399)
!399 = !{null, !396, !392}
!400 = !{!401, !402}
!401 = !DITemplateValueParameter(name: "_AP_N", type: !21, value: i32 33)
!402 = !DITemplateValueParameter(name: "_AP_S", type: !45, value: i8 1)
!403 = !DIDerivedType(tag: DW_TAG_member, name: "width", scope: !386, file: !26, line: 176, baseType: !47, flags: DIFlagStaticMember, extraData: i32 33)
!404 = !DIDerivedType(tag: DW_TAG_member, name: "sign_flag", scope: !386, file: !26, line: 177, baseType: !49, flags: DIFlagStaticMember, extraData: i1 true)
!405 = !DISubprogram(name: "countLeadingOnes", linkageName: "_ZNK11ap_int_baseILi33ELb1EE16countLeadingOnesEv", scope: !386, file: !26, line: 156, type: !406, isLocal: false, isDefinition: false, scopeLine: 156, flags: DIFlagPrivate | DIFlagPrototyped, isOptimized: false)
!406 = !DISubroutineType(types: !407)
!407 = !{!21, !408}
!408 = !DIDerivedType(tag: DW_TAG_pointer_type, baseType: !409, size: 64, flags: DIFlagArtificial | DIFlagObjectPointer)
!409 = !DIDerivedType(tag: DW_TAG_const_type, baseType: !386)
!410 = !DISubprogram(name: "ap_int_base", scope: !386, file: !26, line: 221, type: !411, isLocal: false, isDefinition: false, scopeLine: 221, flags: DIFlagPrototyped, isOptimized: false)
!411 = !DISubroutineType(types: !412)
!412 = !{null, !413}
!413 = !DIDerivedType(tag: DW_TAG_pointer_type, baseType: !386, size: 64, flags: DIFlagArtificial | DIFlagObjectPointer)
!414 = !DISubprogram(name: "ap_int_base", scope: !386, file: !26, line: 254, type: !415, isLocal: false, isDefinition: false, scopeLine: 254, flags: DIFlagPrototyped, isOptimized: false)
!415 = !DISubroutineType(types: !416)
!416 = !{null, !413, !49}
!417 = !DISubprogram(name: "ap_int_base", scope: !386, file: !26, line: 255, type: !418, isLocal: false, isDefinition: false, scopeLine: 255, flags: DIFlagPrototyped, isOptimized: false)
!418 = !DISubroutineType(types: !419)
!419 = !{null, !413, !65}
!420 = !DISubprogram(name: "ap_int_base", scope: !386, file: !26, line: 256, type: !421, isLocal: false, isDefinition: false, scopeLine: 256, flags: DIFlagPrototyped, isOptimized: false)
!421 = !DISubroutineType(types: !422)
!422 = !{null, !413, !70}
!423 = !DISubprogram(name: "ap_int_base", scope: !386, file: !26, line: 257, type: !424, isLocal: false, isDefinition: false, scopeLine: 257, flags: DIFlagPrototyped, isOptimized: false)
!424 = !DISubroutineType(types: !425)
!425 = !{null, !413, !75}
!426 = !DISubprogram(name: "ap_int_base", scope: !386, file: !26, line: 258, type: !427, isLocal: false, isDefinition: false, scopeLine: 258, flags: DIFlagPrototyped, isOptimized: false)
!427 = !DISubroutineType(types: !428)
!428 = !{null, !413, !80}
!429 = !DISubprogram(name: "ap_int_base", scope: !386, file: !26, line: 259, type: !430, isLocal: false, isDefinition: false, scopeLine: 259, flags: DIFlagPrototyped, isOptimized: false)
!430 = !DISubroutineType(types: !431)
!431 = !{null, !413, !85}
!432 = !DISubprogram(name: "ap_int_base", scope: !386, file: !26, line: 260, type: !433, isLocal: false, isDefinition: false, scopeLine: 260, flags: DIFlagPrototyped, isOptimized: false)
!433 = !DISubroutineType(types: !434)
!434 = !{null, !413, !47}
!435 = !DISubprogram(name: "ap_int_base", scope: !386, file: !26, line: 261, type: !436, isLocal: false, isDefinition: false, scopeLine: 261, flags: DIFlagPrototyped, isOptimized: false)
!436 = !DISubroutineType(types: !437)
!437 = !{null, !413, !93}
!438 = !DISubprogram(name: "ap_int_base", scope: !386, file: !26, line: 262, type: !439, isLocal: false, isDefinition: false, scopeLine: 262, flags: DIFlagPrototyped, isOptimized: false)
!439 = !DISubroutineType(types: !440)
!440 = !{null, !413, !97}
!441 = !DISubprogram(name: "ap_int_base", scope: !386, file: !26, line: 263, type: !442, isLocal: false, isDefinition: false, scopeLine: 263, flags: DIFlagPrototyped, isOptimized: false)
!442 = !DISubroutineType(types: !443)
!443 = !{null, !413, !102}
!444 = !DISubprogram(name: "ap_int_base", scope: !386, file: !26, line: 264, type: !445, isLocal: false, isDefinition: false, scopeLine: 264, flags: DIFlagPrototyped, isOptimized: false)
!445 = !DISubroutineType(types: !446)
!446 = !{null, !413, !107}
!447 = !DISubprogram(name: "ap_int_base", scope: !386, file: !26, line: 265, type: !448, isLocal: false, isDefinition: false, scopeLine: 265, flags: DIFlagPrototyped, isOptimized: false)
!448 = !DISubroutineType(types: !449)
!449 = !{null, !413, !114}
!450 = !DISubprogram(name: "ap_int_base", scope: !386, file: !26, line: 270, type: !451, isLocal: false, isDefinition: false, scopeLine: 270, flags: DIFlagPrototyped, isOptimized: false)
!451 = !DISubroutineType(types: !452)
!452 = !{null, !413, !120}
!453 = !DISubprogram(name: "ap_int_base", scope: !386, file: !26, line: 276, type: !454, isLocal: false, isDefinition: false, scopeLine: 276, flags: DIFlagPrototyped, isOptimized: false)
!454 = !DISubroutineType(types: !455)
!455 = !{null, !413, !13}
!456 = !DISubprogram(name: "ap_int_base", scope: !386, file: !26, line: 335, type: !457, isLocal: false, isDefinition: false, scopeLine: 335, flags: DIFlagPrototyped, isOptimized: false)
!457 = !DISubroutineType(types: !458)
!458 = !{null, !413, !128}
!459 = !DISubprogram(name: "ap_int_base", scope: !386, file: !26, line: 431, type: !460, isLocal: false, isDefinition: false, scopeLine: 431, flags: DIFlagPrototyped, isOptimized: false)
!460 = !DISubroutineType(types: !461)
!461 = !{null, !413, !132}
!462 = !DISubprogram(name: "ap_int_base", scope: !386, file: !26, line: 437, type: !463, isLocal: false, isDefinition: false, scopeLine: 437, flags: DIFlagPrototyped, isOptimized: false)
!463 = !DISubroutineType(types: !464)
!464 = !{null, !413, !132, !71}
!465 = !DISubprogram(name: "read", linkageName: "_ZNV11ap_int_baseILi33ELb1EE4readEv", scope: !386, file: !26, line: 459, type: !466, isLocal: false, isDefinition: false, scopeLine: 459, flags: DIFlagPrototyped, isOptimized: false)
!466 = !DISubroutineType(types: !467)
!467 = !{!386, !468}
!468 = !DIDerivedType(tag: DW_TAG_pointer_type, baseType: !469, size: 64, flags: DIFlagArtificial | DIFlagObjectPointer)
!469 = !DIDerivedType(tag: DW_TAG_volatile_type, baseType: !386)
!470 = !DISubprogram(name: "write", linkageName: "_ZNV11ap_int_baseILi33ELb1EE5writeERKS0_", scope: !386, file: !26, line: 466, type: !471, isLocal: false, isDefinition: false, scopeLine: 466, flags: DIFlagPrototyped, isOptimized: false)
!471 = !DISubroutineType(types: !472)
!472 = !{null, !468, !473}
!473 = !DIDerivedType(tag: DW_TAG_reference_type, baseType: !409, size: 64)
!474 = !DISubprogram(name: "operator=", linkageName: "_ZNV11ap_int_baseILi33ELb1EEaSERVKS0_", scope: !386, file: !26, line: 478, type: !475, isLocal: false, isDefinition: false, scopeLine: 478, flags: DIFlagPrototyped, isOptimized: false)
!475 = !DISubroutineType(types: !476)
!476 = !{null, !468, !477}
!477 = !DIDerivedType(tag: DW_TAG_reference_type, baseType: !478, size: 64)
!478 = !DIDerivedType(tag: DW_TAG_const_type, baseType: !469)
!479 = !DISubprogram(name: "operator=", linkageName: "_ZNV11ap_int_baseILi33ELb1EEaSERKS0_", scope: !386, file: !26, line: 488, type: !471, isLocal: false, isDefinition: false, scopeLine: 488, flags: DIFlagPrototyped, isOptimized: false)
!480 = !DISubprogram(name: "operator=", linkageName: "_ZN11ap_int_baseILi33ELb1EEaSERVKS0_", scope: !386, file: !26, line: 505, type: !481, isLocal: false, isDefinition: false, scopeLine: 505, flags: DIFlagPrototyped, isOptimized: false)
!481 = !DISubroutineType(types: !482)
!482 = !{!483, !413, !477}
!483 = !DIDerivedType(tag: DW_TAG_reference_type, baseType: !386, size: 64)
!484 = !DISubprogram(name: "operator=", linkageName: "_ZN11ap_int_baseILi33ELb1EEaSERKS0_", scope: !386, file: !26, line: 511, type: !485, isLocal: false, isDefinition: false, scopeLine: 511, flags: DIFlagPrototyped, isOptimized: false)
!485 = !DISubroutineType(types: !486)
!486 = !{!483, !413, !473}
!487 = !DISubprogram(name: "operator=", linkageName: "_ZN11ap_int_baseILi33ELb1EEaSEb", scope: !386, file: !26, line: 525, type: !488, isLocal: false, isDefinition: false, scopeLine: 525, flags: DIFlagPrototyped, isOptimized: false)
!488 = !DISubroutineType(types: !489)
!489 = !{!483, !413, !45}
!490 = !DISubprogram(name: "operator=", linkageName: "_ZN11ap_int_baseILi33ELb1EEaSEc", scope: !386, file: !26, line: 526, type: !491, isLocal: false, isDefinition: false, scopeLine: 526, flags: DIFlagPrototyped, isOptimized: false)
!491 = !DISubroutineType(types: !492)
!492 = !{!483, !413, !66}
!493 = !DISubprogram(name: "operator=", linkageName: "_ZN11ap_int_baseILi33ELb1EEaSEa", scope: !386, file: !26, line: 527, type: !494, isLocal: false, isDefinition: false, scopeLine: 527, flags: DIFlagPrototyped, isOptimized: false)
!494 = !DISubroutineType(types: !495)
!495 = !{!483, !413, !71}
!496 = !DISubprogram(name: "operator=", linkageName: "_ZN11ap_int_baseILi33ELb1EEaSEh", scope: !386, file: !26, line: 528, type: !497, isLocal: false, isDefinition: false, scopeLine: 528, flags: DIFlagPrototyped, isOptimized: false)
!497 = !DISubroutineType(types: !498)
!498 = !{!483, !413, !76}
!499 = !DISubprogram(name: "operator=", linkageName: "_ZN11ap_int_baseILi33ELb1EEaSEs", scope: !386, file: !26, line: 529, type: !500, isLocal: false, isDefinition: false, scopeLine: 529, flags: DIFlagPrototyped, isOptimized: false)
!500 = !DISubroutineType(types: !501)
!501 = !{!483, !413, !81}
!502 = !DISubprogram(name: "operator=", linkageName: "_ZN11ap_int_baseILi33ELb1EEaSEt", scope: !386, file: !26, line: 530, type: !503, isLocal: false, isDefinition: false, scopeLine: 530, flags: DIFlagPrototyped, isOptimized: false)
!503 = !DISubroutineType(types: !504)
!504 = !{!483, !413, !86}
!505 = !DISubprogram(name: "operator=", linkageName: "_ZN11ap_int_baseILi33ELb1EEaSEi", scope: !386, file: !26, line: 531, type: !506, isLocal: false, isDefinition: false, scopeLine: 531, flags: DIFlagPrototyped, isOptimized: false)
!506 = !DISubroutineType(types: !507)
!507 = !{!483, !413, !21}
!508 = !DISubprogram(name: "operator=", linkageName: "_ZN11ap_int_baseILi33ELb1EEaSEj", scope: !386, file: !26, line: 532, type: !509, isLocal: false, isDefinition: false, scopeLine: 532, flags: DIFlagPrototyped, isOptimized: false)
!509 = !DISubroutineType(types: !510)
!510 = !{!483, !413, !34}
!511 = !DISubprogram(name: "operator=", linkageName: "_ZN11ap_int_baseILi33ELb1EEaSEl", scope: !386, file: !26, line: 533, type: !512, isLocal: false, isDefinition: false, scopeLine: 533, flags: DIFlagPrototyped, isOptimized: false)
!512 = !DISubroutineType(types: !513)
!513 = !{!483, !413, !98}
!514 = !DISubprogram(name: "operator=", linkageName: "_ZN11ap_int_baseILi33ELb1EEaSEm", scope: !386, file: !26, line: 534, type: !515, isLocal: false, isDefinition: false, scopeLine: 534, flags: DIFlagPrototyped, isOptimized: false)
!515 = !DISubroutineType(types: !516)
!516 = !{!483, !413, !103}
!517 = !DISubprogram(name: "operator=", linkageName: "_ZN11ap_int_baseILi33ELb1EEaSEx", scope: !386, file: !26, line: 535, type: !518, isLocal: false, isDefinition: false, scopeLine: 535, flags: DIFlagPrototyped, isOptimized: false)
!518 = !DISubroutineType(types: !519)
!519 = !{!483, !413, !108}
!520 = !DISubprogram(name: "operator=", linkageName: "_ZN11ap_int_baseILi33ELb1EEaSEy", scope: !386, file: !26, line: 536, type: !521, isLocal: false, isDefinition: false, scopeLine: 536, flags: DIFlagPrototyped, isOptimized: false)
!521 = !DISubroutineType(types: !522)
!522 = !{!483, !413, !115}
!523 = !DISubprogram(name: "operator long long", linkageName: "_ZNK11ap_int_baseILi33ELb1EEcvxEv", scope: !386, file: !26, line: 587, type: !524, isLocal: false, isDefinition: false, scopeLine: 587, flags: DIFlagPrototyped, isOptimized: false)
!524 = !DISubroutineType(types: !525)
!525 = !{!526, !408}
!526 = !DIDerivedType(tag: DW_TAG_typedef, name: "RetType", scope: !386, file: !26, line: 174, baseType: !527)
!527 = !DIDerivedType(tag: DW_TAG_typedef, name: "Type", scope: !528, file: !26, line: 92, baseType: !108)
!528 = distinct !DICompositeType(tag: DW_TAG_structure_type, name: "retval<8, true>", file: !26, line: 91, size: 8, flags: DIFlagTypePassByValue, elements: !4, templateParams: !529, identifier: "_ZTS6retvalILi8ELb1EE")
!529 = !{!530, !402}
!530 = !DITemplateValueParameter(name: "_AP_N", type: !21, value: i32 8)
!531 = !DISubprogram(name: "to_bool", linkageName: "_ZNK11ap_int_baseILi33ELb1EE7to_boolEv", scope: !386, file: !26, line: 592, type: !532, isLocal: false, isDefinition: false, scopeLine: 592, flags: DIFlagPrototyped, isOptimized: false)
!532 = !DISubroutineType(types: !533)
!533 = !{!45, !408}
!534 = !DISubprogram(name: "to_char", linkageName: "_ZNK11ap_int_baseILi33ELb1EE7to_charEv", scope: !386, file: !26, line: 593, type: !535, isLocal: false, isDefinition: false, scopeLine: 593, flags: DIFlagPrototyped, isOptimized: false)
!535 = !DISubroutineType(types: !536)
!536 = !{!66, !408}
!537 = !DISubprogram(name: "to_schar", linkageName: "_ZNK11ap_int_baseILi33ELb1EE8to_scharEv", scope: !386, file: !26, line: 594, type: !538, isLocal: false, isDefinition: false, scopeLine: 594, flags: DIFlagPrototyped, isOptimized: false)
!538 = !DISubroutineType(types: !539)
!539 = !{!71, !408}
!540 = !DISubprogram(name: "to_uchar", linkageName: "_ZNK11ap_int_baseILi33ELb1EE8to_ucharEv", scope: !386, file: !26, line: 595, type: !541, isLocal: false, isDefinition: false, scopeLine: 595, flags: DIFlagPrototyped, isOptimized: false)
!541 = !DISubroutineType(types: !542)
!542 = !{!76, !408}
!543 = !DISubprogram(name: "to_short", linkageName: "_ZNK11ap_int_baseILi33ELb1EE8to_shortEv", scope: !386, file: !26, line: 596, type: !544, isLocal: false, isDefinition: false, scopeLine: 596, flags: DIFlagPrototyped, isOptimized: false)
!544 = !DISubroutineType(types: !545)
!545 = !{!81, !408}
!546 = !DISubprogram(name: "to_ushort", linkageName: "_ZNK11ap_int_baseILi33ELb1EE9to_ushortEv", scope: !386, file: !26, line: 597, type: !547, isLocal: false, isDefinition: false, scopeLine: 597, flags: DIFlagPrototyped, isOptimized: false)
!547 = !DISubroutineType(types: !548)
!548 = !{!86, !408}
!549 = !DISubprogram(name: "to_int", linkageName: "_ZNK11ap_int_baseILi33ELb1EE6to_intEv", scope: !386, file: !26, line: 598, type: !406, isLocal: false, isDefinition: false, scopeLine: 598, flags: DIFlagPrototyped, isOptimized: false)
!550 = !DISubprogram(name: "to_uint", linkageName: "_ZNK11ap_int_baseILi33ELb1EE7to_uintEv", scope: !386, file: !26, line: 599, type: !551, isLocal: false, isDefinition: false, scopeLine: 599, flags: DIFlagPrototyped, isOptimized: false)
!551 = !DISubroutineType(types: !552)
!552 = !{!34, !408}
!553 = !DISubprogram(name: "to_long", linkageName: "_ZNK11ap_int_baseILi33ELb1EE7to_longEv", scope: !386, file: !26, line: 600, type: !554, isLocal: false, isDefinition: false, scopeLine: 600, flags: DIFlagPrototyped, isOptimized: false)
!554 = !DISubroutineType(types: !555)
!555 = !{!98, !408}
!556 = !DISubprogram(name: "to_ulong", linkageName: "_ZNK11ap_int_baseILi33ELb1EE8to_ulongEv", scope: !386, file: !26, line: 601, type: !557, isLocal: false, isDefinition: false, scopeLine: 601, flags: DIFlagPrototyped, isOptimized: false)
!557 = !DISubroutineType(types: !558)
!558 = !{!103, !408}
!559 = !DISubprogram(name: "to_int64", linkageName: "_ZNK11ap_int_baseILi33ELb1EE8to_int64Ev", scope: !386, file: !26, line: 602, type: !560, isLocal: false, isDefinition: false, scopeLine: 602, flags: DIFlagPrototyped, isOptimized: false)
!560 = !DISubroutineType(types: !561)
!561 = !{!108, !408}
!562 = !DISubprogram(name: "to_uint64", linkageName: "_ZNK11ap_int_baseILi33ELb1EE9to_uint64Ev", scope: !386, file: !26, line: 603, type: !563, isLocal: false, isDefinition: false, scopeLine: 603, flags: DIFlagPrototyped, isOptimized: false)
!563 = !DISubroutineType(types: !564)
!564 = !{!115, !408}
!565 = !DISubprogram(name: "to_half", linkageName: "_ZNK11ap_int_baseILi33ELb1EE7to_halfEv", scope: !386, file: !26, line: 604, type: !566, isLocal: false, isDefinition: false, scopeLine: 604, flags: DIFlagPrototyped, isOptimized: false)
!566 = !DISubroutineType(types: !567)
!567 = !{!120, !408}
!568 = !DISubprogram(name: "to_float", linkageName: "_ZNK11ap_int_baseILi33ELb1EE8to_floatEv", scope: !386, file: !26, line: 605, type: !569, isLocal: false, isDefinition: false, scopeLine: 605, flags: DIFlagPrototyped, isOptimized: false)
!569 = !DISubroutineType(types: !570)
!570 = !{!13, !408}
!571 = !DISubprogram(name: "to_double", linkageName: "_ZNK11ap_int_baseILi33ELb1EE9to_doubleEv", scope: !386, file: !26, line: 606, type: !572, isLocal: false, isDefinition: false, scopeLine: 606, flags: DIFlagPrototyped, isOptimized: false)
!572 = !DISubroutineType(types: !573)
!573 = !{!128, !408}
!574 = !DISubprogram(name: "length", linkageName: "_ZNVK11ap_int_baseILi33ELb1EE6lengthEv", scope: !386, file: !26, line: 630, type: !575, isLocal: false, isDefinition: false, scopeLine: 630, flags: DIFlagPrototyped, isOptimized: false)
!575 = !DISubroutineType(types: !576)
!576 = !{!21, !577}
!577 = !DIDerivedType(tag: DW_TAG_pointer_type, baseType: !478, size: 64, flags: DIFlagArtificial | DIFlagObjectPointer)
!578 = !DISubprogram(name: "length", linkageName: "_ZNK11ap_int_baseILi33ELb1EE6lengthEv", scope: !386, file: !26, line: 631, type: !406, isLocal: false, isDefinition: false, scopeLine: 631, flags: DIFlagPrototyped, isOptimized: false)
!579 = !DISubprogram(name: "iszero", linkageName: "_ZNK11ap_int_baseILi33ELb1EE6iszeroEv", scope: !386, file: !26, line: 634, type: !532, isLocal: false, isDefinition: false, scopeLine: 634, flags: DIFlagPrototyped, isOptimized: false)
!580 = !DISubprogram(name: "is_zero", linkageName: "_ZNK11ap_int_baseILi33ELb1EE7is_zeroEv", scope: !386, file: !26, line: 637, type: !532, isLocal: false, isDefinition: false, scopeLine: 637, flags: DIFlagPrototyped, isOptimized: false)
!581 = !DISubprogram(name: "sign", linkageName: "_ZNK11ap_int_baseILi33ELb1EE4signEv", scope: !386, file: !26, line: 640, type: !532, isLocal: false, isDefinition: false, scopeLine: 640, flags: DIFlagPrototyped, isOptimized: false)
!582 = !DISubprogram(name: "clear", linkageName: "_ZN11ap_int_baseILi33ELb1EE5clearEi", scope: !386, file: !26, line: 649, type: !583, isLocal: false, isDefinition: false, scopeLine: 649, flags: DIFlagPrototyped, isOptimized: false)
!583 = !DISubroutineType(types: !584)
!584 = !{null, !413, !21}
!585 = !DISubprogram(name: "invert", linkageName: "_ZN11ap_int_baseILi33ELb1EE6invertEi", scope: !386, file: !26, line: 655, type: !583, isLocal: false, isDefinition: false, scopeLine: 655, flags: DIFlagPrototyped, isOptimized: false)
!586 = !DISubprogram(name: "test", linkageName: "_ZNK11ap_int_baseILi33ELb1EE4testEi", scope: !386, file: !26, line: 664, type: !587, isLocal: false, isDefinition: false, scopeLine: 664, flags: DIFlagPrototyped, isOptimized: false)
!587 = !DISubroutineType(types: !588)
!588 = !{!45, !408, !21}
!589 = !DISubprogram(name: "get", linkageName: "_ZN11ap_int_baseILi33ELb1EE3getEv", scope: !386, file: !26, line: 670, type: !590, isLocal: false, isDefinition: false, scopeLine: 670, flags: DIFlagPrototyped, isOptimized: false)
!590 = !DISubroutineType(types: !591)
!591 = !{!483, !413}
!592 = !DISubprogram(name: "set", linkageName: "_ZN11ap_int_baseILi33ELb1EE3setEi", scope: !386, file: !26, line: 673, type: !583, isLocal: false, isDefinition: false, scopeLine: 673, flags: DIFlagPrototyped, isOptimized: false)
!593 = !DISubprogram(name: "set", linkageName: "_ZN11ap_int_baseILi33ELb1EE3setEib", scope: !386, file: !26, line: 679, type: !594, isLocal: false, isDefinition: false, scopeLine: 679, flags: DIFlagPrototyped, isOptimized: false)
!594 = !DISubroutineType(types: !595)
!595 = !{null, !413, !21, !45}
!596 = !DISubprogram(name: "lrotate", linkageName: "_ZN11ap_int_baseILi33ELb1EE7lrotateEi", scope: !386, file: !26, line: 686, type: !506, isLocal: false, isDefinition: false, scopeLine: 686, flags: DIFlagPrototyped, isOptimized: false)
!597 = !DISubprogram(name: "rrotate", linkageName: "_ZN11ap_int_baseILi33ELb1EE7rrotateEi", scope: !386, file: !26, line: 701, type: !506, isLocal: false, isDefinition: false, scopeLine: 701, flags: DIFlagPrototyped, isOptimized: false)
!598 = !DISubprogram(name: "reverse", linkageName: "_ZN11ap_int_baseILi33ELb1EE7reverseEv", scope: !386, file: !26, line: 716, type: !590, isLocal: false, isDefinition: false, scopeLine: 716, flags: DIFlagPrototyped, isOptimized: false)
!599 = !DISubprogram(name: "set_bit", linkageName: "_ZN11ap_int_baseILi33ELb1EE7set_bitEib", scope: !386, file: !26, line: 722, type: !594, isLocal: false, isDefinition: false, scopeLine: 722, flags: DIFlagPrototyped, isOptimized: false)
!600 = !DISubprogram(name: "get_bit", linkageName: "_ZNK11ap_int_baseILi33ELb1EE7get_bitEi", scope: !386, file: !26, line: 727, type: !587, isLocal: false, isDefinition: false, scopeLine: 727, flags: DIFlagPrototyped, isOptimized: false)
!601 = !DISubprogram(name: "b_not", linkageName: "_ZN11ap_int_baseILi33ELb1EE5b_notEv", scope: !386, file: !26, line: 732, type: !411, isLocal: false, isDefinition: false, scopeLine: 732, flags: DIFlagPrototyped, isOptimized: false)
!602 = !DISubprogram(name: "checkOverflowCsim", linkageName: "_ZNK11ap_int_baseILi33ELb1EE17checkOverflowCsimEibb", scope: !386, file: !26, line: 806, type: !603, isLocal: false, isDefinition: false, scopeLine: 806, flags: DIFlagPrototyped, isOptimized: false)
!603 = !DISubroutineType(types: !604)
!604 = !{!45, !408, !21, !45, !45}
!605 = !DISubprogram(name: "operator++", linkageName: "_ZN11ap_int_baseILi33ELb1EEppEv", scope: !386, file: !26, line: 911, type: !590, isLocal: false, isDefinition: false, scopeLine: 911, flags: DIFlagPrototyped, isOptimized: false)
!606 = !DISubprogram(name: "operator--", linkageName: "_ZN11ap_int_baseILi33ELb1EEmmEv", scope: !386, file: !26, line: 915, type: !590, isLocal: false, isDefinition: false, scopeLine: 915, flags: DIFlagPrototyped, isOptimized: false)
!607 = !DISubprogram(name: "operator++", linkageName: "_ZN11ap_int_baseILi33ELb1EEppEi", scope: !386, file: !26, line: 923, type: !608, isLocal: false, isDefinition: false, scopeLine: 923, flags: DIFlagPrototyped, isOptimized: false)
!608 = !DISubroutineType(types: !609)
!609 = !{!610, !413, !21}
!610 = !DIDerivedType(tag: DW_TAG_const_type, baseType: !611)
!611 = !DIDerivedType(tag: DW_TAG_typedef, name: "arg1", scope: !612, file: !26, line: 213, baseType: !378)
!612 = distinct !DICompositeType(tag: DW_TAG_structure_type, name: "RType<33, true>", scope: !386, file: !26, line: 180, size: 8, flags: DIFlagTypePassByValue, elements: !4, templateParams: !380, identifier: "_ZTSN11ap_int_baseILi33ELb1EE5RTypeILi33ELb1EEE")
!613 = !DISubprogram(name: "operator--", linkageName: "_ZN11ap_int_baseILi33ELb1EEmmEi", scope: !386, file: !26, line: 928, type: !608, isLocal: false, isDefinition: false, scopeLine: 928, flags: DIFlagPrototyped, isOptimized: false)
!614 = !DISubprogram(name: "operator+", linkageName: "_ZNK11ap_int_baseILi33ELb1EEpsEv", scope: !386, file: !26, line: 937, type: !615, isLocal: false, isDefinition: false, scopeLine: 937, flags: DIFlagPrototyped, isOptimized: false)
!615 = !DISubroutineType(types: !616)
!616 = !{!611, !408}
!617 = !DISubprogram(name: "operator-", linkageName: "_ZNK11ap_int_baseILi33ELb1EEngEv", scope: !386, file: !26, line: 940, type: !618, isLocal: false, isDefinition: false, scopeLine: 940, flags: DIFlagPrototyped, isOptimized: false)
!618 = !DISubroutineType(types: !619)
!619 = !{!620, !408}
!620 = !DIDerivedType(tag: DW_TAG_typedef, name: "minus", scope: !621, file: !26, line: 209, baseType: !622)
!621 = distinct !DICompositeType(tag: DW_TAG_structure_type, name: "RType<1, false>", scope: !386, file: !26, line: 180, size: 8, flags: DIFlagTypePassByValue, elements: !4, templateParams: !376, identifier: "_ZTSN11ap_int_baseILi33ELb1EE5RTypeILi1ELb0EEE")
!622 = !DIDerivedType(tag: DW_TAG_typedef, name: "type", scope: !623, file: !26, line: 149, baseType: !626)
!623 = distinct !DICompositeType(tag: DW_TAG_structure_type, name: "_ap_int_factory<34, true>", file: !26, line: 149, size: 8, flags: DIFlagTypePassByValue, elements: !4, templateParams: !624, identifier: "_ZTS15_ap_int_factoryILi34ELb1EE")
!624 = !{!625, !382}
!625 = !DITemplateValueParameter(name: "_AP_W2", type: !21, value: i32 34)
!626 = distinct !DICompositeType(tag: DW_TAG_structure_type, name: "ap_int<34>", file: !627, line: 18, size: 64, flags: DIFlagTypePassByValue, elements: !628, templateParams: !1697, identifier: "_ZTS6ap_intILi34EE")
!627 = !DIFile(filename: "r:/ci/prod/2022.1/rdi_builds/continuous/2022_04_18_3526262/src/shared/hls/clib/include/header_files\5Cap_int.h", directory: "R:\5Cci\5Cprod\5C2022.1\5Crdi_builds\5Ccontinuous\5C2022_04_18_3526262\5Csrc\5Cshared")
!628 = !{!629, !1619, !1623, !1627, !1630, !1633, !1636, !1639, !1642, !1645, !1648, !1651, !1654, !1657, !1660, !1663, !1666, !1669, !1672, !1675, !1678, !1684, !1690, !1694}
!629 = !DIDerivedType(tag: DW_TAG_inheritance, scope: !626, baseType: !630)
!630 = distinct !DICompositeType(tag: DW_TAG_structure_type, name: "ap_int_base<34, true>", file: !631, line: 108, size: 64, flags: DIFlagTypePassByValue, elements: !632, templateParams: !1617, identifier: "_ZTS11ap_int_baseILi34ELb1EE")
!631 = !DIFile(filename: "r:/ci/prod/2022.1/rdi_builds/continuous/2022_04_18_3526262/src/shared/hls/clib/include/header_files\5Cap_int_base.h", directory: "R:\5Cci\5Cprod\5C2022.1\5Crdi_builds\5Ccontinuous\5C2022_04_18_3526262\5Csrc\5Cshared")
!632 = !{!633, !648, !649, !650, !655, !659, !662, !665, !668, !671, !674, !677, !680, !683, !686, !689, !695, !700, !704, !707, !710, !713, !716, !721, !725, !730, !731, !735, !738, !741, !744, !747, !750, !753, !756, !759, !762, !765, !768, !771, !774, !779, !782, !785, !788, !791, !794, !797, !798, !801, !804, !807, !810, !813, !816, !819, !822, !826, !827, !828, !829, !830, !833, !834, !837, !840, !841, !844, !845, !846, !847, !848, !849, !850, !853, !854, !855, !862, !863, !866, !1583, !1584, !1585, !1589, !1592, !1595, !1598, !1599, !1600, !1604, !1605, !1606, !1607, !1608, !1609, !1610, !1611, !1612, !1613, !1614}
!633 = !DIDerivedType(tag: DW_TAG_inheritance, scope: !630, baseType: !634)
!634 = distinct !DICompositeType(tag: DW_TAG_structure_type, name: "ssdm_int<34, true>", file: !635, line: 509, size: 64, flags: DIFlagTypePassByValue, elements: !636, templateParams: !646, identifier: "_ZTS8ssdm_intILi34ELb1EE")
!635 = !DIFile(filename: "r:/ci/prod/2022.1/rdi_builds/continuous/2022_04_18_3526262/src/shared/hls/clib/include/header_files\5Cap_common.h", directory: "R:\5Cci\5Cprod\5C2022.1\5Crdi_builds\5Ccontinuous\5C2022_04_18_3526262\5Csrc\5Cshared")
!636 = !{!637, !639, !643}
!637 = !DIDerivedType(tag: DW_TAG_member, name: "V", scope: !634, file: !635, line: 511, baseType: !638, size: 34, align: 64)
!638 = !DIBasicType(name: "int34", size: 34, encoding: DW_ATE_signed)
!639 = !DISubprogram(name: "ssdm_int", scope: !634, file: !635, line: 512, type: !640, isLocal: false, isDefinition: false, scopeLine: 512, flags: DIFlagPrototyped, isOptimized: false)
!640 = !DISubroutineType(types: !641)
!641 = !{null, !642}
!642 = !DIDerivedType(tag: DW_TAG_pointer_type, baseType: !634, size: 64, flags: DIFlagArtificial | DIFlagObjectPointer)
!643 = !DISubprogram(name: "ssdm_int", scope: !634, file: !635, line: 513, type: !644, isLocal: false, isDefinition: false, scopeLine: 513, flags: DIFlagPrototyped, isOptimized: false)
!644 = !DISubroutineType(types: !645)
!645 = !{null, !642, !638}
!646 = !{!647, !402}
!647 = !DITemplateValueParameter(name: "_AP_N", type: !21, value: i32 34)
!648 = !DIDerivedType(tag: DW_TAG_member, name: "width", scope: !630, file: !631, line: 130, baseType: !47, flags: DIFlagStaticMember, extraData: i32 34)
!649 = !DIDerivedType(tag: DW_TAG_member, name: "sign_flag", scope: !630, file: !631, line: 131, baseType: !49, flags: DIFlagStaticMember, extraData: i1 true)
!650 = !DISubprogram(name: "countLeadingOnes", linkageName: "_ZNK11ap_int_baseILi34ELb1EE16countLeadingOnesEv", scope: !630, file: !631, line: 110, type: !651, isLocal: false, isDefinition: false, scopeLine: 110, flags: DIFlagPrivate | DIFlagPrototyped, isOptimized: false)
!651 = !DISubroutineType(types: !652)
!652 = !{!21, !653}
!653 = !DIDerivedType(tag: DW_TAG_pointer_type, baseType: !654, size: 64, flags: DIFlagArtificial | DIFlagObjectPointer)
!654 = !DIDerivedType(tag: DW_TAG_const_type, baseType: !630)
!655 = !DISubprogram(name: "ap_int_base", scope: !630, file: !631, line: 175, type: !656, isLocal: false, isDefinition: false, scopeLine: 175, flags: DIFlagPrototyped, isOptimized: false)
!656 = !DISubroutineType(types: !657)
!657 = !{null, !658}
!658 = !DIDerivedType(tag: DW_TAG_pointer_type, baseType: !630, size: 64, flags: DIFlagArtificial | DIFlagObjectPointer)
!659 = !DISubprogram(name: "ap_int_base", scope: !630, file: !631, line: 208, type: !660, isLocal: false, isDefinition: false, scopeLine: 208, flags: DIFlagPrototyped, isOptimized: false)
!660 = !DISubroutineType(types: !661)
!661 = !{null, !658, !49}
!662 = !DISubprogram(name: "ap_int_base", scope: !630, file: !631, line: 209, type: !663, isLocal: false, isDefinition: false, scopeLine: 209, flags: DIFlagPrototyped, isOptimized: false)
!663 = !DISubroutineType(types: !664)
!664 = !{null, !658, !65}
!665 = !DISubprogram(name: "ap_int_base", scope: !630, file: !631, line: 210, type: !666, isLocal: false, isDefinition: false, scopeLine: 210, flags: DIFlagPrototyped, isOptimized: false)
!666 = !DISubroutineType(types: !667)
!667 = !{null, !658, !70}
!668 = !DISubprogram(name: "ap_int_base", scope: !630, file: !631, line: 211, type: !669, isLocal: false, isDefinition: false, scopeLine: 211, flags: DIFlagPrototyped, isOptimized: false)
!669 = !DISubroutineType(types: !670)
!670 = !{null, !658, !75}
!671 = !DISubprogram(name: "ap_int_base", scope: !630, file: !631, line: 212, type: !672, isLocal: false, isDefinition: false, scopeLine: 212, flags: DIFlagPrototyped, isOptimized: false)
!672 = !DISubroutineType(types: !673)
!673 = !{null, !658, !80}
!674 = !DISubprogram(name: "ap_int_base", scope: !630, file: !631, line: 213, type: !675, isLocal: false, isDefinition: false, scopeLine: 213, flags: DIFlagPrototyped, isOptimized: false)
!675 = !DISubroutineType(types: !676)
!676 = !{null, !658, !85}
!677 = !DISubprogram(name: "ap_int_base", scope: !630, file: !631, line: 214, type: !678, isLocal: false, isDefinition: false, scopeLine: 214, flags: DIFlagPrototyped, isOptimized: false)
!678 = !DISubroutineType(types: !679)
!679 = !{null, !658, !47}
!680 = !DISubprogram(name: "ap_int_base", scope: !630, file: !631, line: 215, type: !681, isLocal: false, isDefinition: false, scopeLine: 215, flags: DIFlagPrototyped, isOptimized: false)
!681 = !DISubroutineType(types: !682)
!682 = !{null, !658, !93}
!683 = !DISubprogram(name: "ap_int_base", scope: !630, file: !631, line: 216, type: !684, isLocal: false, isDefinition: false, scopeLine: 216, flags: DIFlagPrototyped, isOptimized: false)
!684 = !DISubroutineType(types: !685)
!685 = !{null, !658, !97}
!686 = !DISubprogram(name: "ap_int_base", scope: !630, file: !631, line: 217, type: !687, isLocal: false, isDefinition: false, scopeLine: 217, flags: DIFlagPrototyped, isOptimized: false)
!687 = !DISubroutineType(types: !688)
!688 = !{null, !658, !102}
!689 = !DISubprogram(name: "ap_int_base", scope: !630, file: !631, line: 218, type: !690, isLocal: false, isDefinition: false, scopeLine: 218, flags: DIFlagPrototyped, isOptimized: false)
!690 = !DISubroutineType(types: !691)
!691 = !{null, !658, !692}
!692 = !DIDerivedType(tag: DW_TAG_const_type, baseType: !693)
!693 = !DIDerivedType(tag: DW_TAG_typedef, name: "ap_slong", file: !694, line: 187, baseType: !110)
!694 = !DIFile(filename: "r:/ci/prod/2022.1/rdi_builds/continuous/2022_04_18_3526262/src/shared/hls/clib/include/header_files\5Cap_decl.h", directory: "R:\5Cci\5Cprod\5C2022.1\5Crdi_builds\5Ccontinuous\5C2022_04_18_3526262\5Csrc\5Cshared")
!695 = !DISubprogram(name: "ap_int_base", scope: !630, file: !631, line: 219, type: !696, isLocal: false, isDefinition: false, scopeLine: 219, flags: DIFlagPrototyped, isOptimized: false)
!696 = !DISubroutineType(types: !697)
!697 = !{null, !658, !698}
!698 = !DIDerivedType(tag: DW_TAG_const_type, baseType: !699)
!699 = !DIDerivedType(tag: DW_TAG_typedef, name: "ap_ulong", file: !694, line: 188, baseType: !116)
!700 = !DISubprogram(name: "ap_int_base", scope: !630, file: !631, line: 224, type: !701, isLocal: false, isDefinition: false, scopeLine: 224, flags: DIFlagPrototyped, isOptimized: false)
!701 = !DISubroutineType(types: !702)
!702 = !{null, !658, !703}
!703 = !DIDerivedType(tag: DW_TAG_typedef, name: "half", file: !635, line: 611, baseType: !121)
!704 = !DISubprogram(name: "ap_int_base", scope: !630, file: !631, line: 230, type: !705, isLocal: false, isDefinition: false, scopeLine: 230, flags: DIFlagPrototyped, isOptimized: false)
!705 = !DISubroutineType(types: !706)
!706 = !{null, !658, !13}
!707 = !DISubprogram(name: "ap_int_base", scope: !630, file: !631, line: 289, type: !708, isLocal: false, isDefinition: false, scopeLine: 289, flags: DIFlagPrototyped, isOptimized: false)
!708 = !DISubroutineType(types: !709)
!709 = !{null, !658, !128}
!710 = !DISubprogram(name: "ap_int_base", scope: !630, file: !631, line: 385, type: !711, isLocal: false, isDefinition: false, scopeLine: 385, flags: DIFlagPrototyped, isOptimized: false)
!711 = !DISubroutineType(types: !712)
!712 = !{null, !658, !132}
!713 = !DISubprogram(name: "ap_int_base", scope: !630, file: !631, line: 391, type: !714, isLocal: false, isDefinition: false, scopeLine: 391, flags: DIFlagPrototyped, isOptimized: false)
!714 = !DISubroutineType(types: !715)
!715 = !{null, !658, !132, !71}
!716 = !DISubprogram(name: "read", linkageName: "_ZNV11ap_int_baseILi34ELb1EE4readEv", scope: !630, file: !631, line: 413, type: !717, isLocal: false, isDefinition: false, scopeLine: 413, flags: DIFlagPrototyped, isOptimized: false)
!717 = !DISubroutineType(types: !718)
!718 = !{!630, !719}
!719 = !DIDerivedType(tag: DW_TAG_pointer_type, baseType: !720, size: 64, flags: DIFlagArtificial | DIFlagObjectPointer)
!720 = !DIDerivedType(tag: DW_TAG_volatile_type, baseType: !630)
!721 = !DISubprogram(name: "write", linkageName: "_ZNV11ap_int_baseILi34ELb1EE5writeERKS0_", scope: !630, file: !631, line: 420, type: !722, isLocal: false, isDefinition: false, scopeLine: 420, flags: DIFlagPrototyped, isOptimized: false)
!722 = !DISubroutineType(types: !723)
!723 = !{null, !719, !724}
!724 = !DIDerivedType(tag: DW_TAG_reference_type, baseType: !654, size: 64)
!725 = !DISubprogram(name: "operator=", linkageName: "_ZNV11ap_int_baseILi34ELb1EEaSERVKS0_", scope: !630, file: !631, line: 432, type: !726, isLocal: false, isDefinition: false, scopeLine: 432, flags: DIFlagPrototyped, isOptimized: false)
!726 = !DISubroutineType(types: !727)
!727 = !{null, !719, !728}
!728 = !DIDerivedType(tag: DW_TAG_reference_type, baseType: !729, size: 64)
!729 = !DIDerivedType(tag: DW_TAG_const_type, baseType: !720)
!730 = !DISubprogram(name: "operator=", linkageName: "_ZNV11ap_int_baseILi34ELb1EEaSERKS0_", scope: !630, file: !631, line: 442, type: !722, isLocal: false, isDefinition: false, scopeLine: 442, flags: DIFlagPrototyped, isOptimized: false)
!731 = !DISubprogram(name: "operator=", linkageName: "_ZN11ap_int_baseILi34ELb1EEaSERVKS0_", scope: !630, file: !631, line: 459, type: !732, isLocal: false, isDefinition: false, scopeLine: 459, flags: DIFlagPrototyped, isOptimized: false)
!732 = !DISubroutineType(types: !733)
!733 = !{!734, !658, !728}
!734 = !DIDerivedType(tag: DW_TAG_reference_type, baseType: !630, size: 64)
!735 = !DISubprogram(name: "operator=", linkageName: "_ZN11ap_int_baseILi34ELb1EEaSERKS0_", scope: !630, file: !631, line: 465, type: !736, isLocal: false, isDefinition: false, scopeLine: 465, flags: DIFlagPrototyped, isOptimized: false)
!736 = !DISubroutineType(types: !737)
!737 = !{!734, !658, !724}
!738 = !DISubprogram(name: "operator=", linkageName: "_ZN11ap_int_baseILi34ELb1EEaSEb", scope: !630, file: !631, line: 479, type: !739, isLocal: false, isDefinition: false, scopeLine: 479, flags: DIFlagPrototyped, isOptimized: false)
!739 = !DISubroutineType(types: !740)
!740 = !{!734, !658, !45}
!741 = !DISubprogram(name: "operator=", linkageName: "_ZN11ap_int_baseILi34ELb1EEaSEc", scope: !630, file: !631, line: 480, type: !742, isLocal: false, isDefinition: false, scopeLine: 480, flags: DIFlagPrototyped, isOptimized: false)
!742 = !DISubroutineType(types: !743)
!743 = !{!734, !658, !66}
!744 = !DISubprogram(name: "operator=", linkageName: "_ZN11ap_int_baseILi34ELb1EEaSEa", scope: !630, file: !631, line: 481, type: !745, isLocal: false, isDefinition: false, scopeLine: 481, flags: DIFlagPrototyped, isOptimized: false)
!745 = !DISubroutineType(types: !746)
!746 = !{!734, !658, !71}
!747 = !DISubprogram(name: "operator=", linkageName: "_ZN11ap_int_baseILi34ELb1EEaSEh", scope: !630, file: !631, line: 482, type: !748, isLocal: false, isDefinition: false, scopeLine: 482, flags: DIFlagPrototyped, isOptimized: false)
!748 = !DISubroutineType(types: !749)
!749 = !{!734, !658, !76}
!750 = !DISubprogram(name: "operator=", linkageName: "_ZN11ap_int_baseILi34ELb1EEaSEs", scope: !630, file: !631, line: 483, type: !751, isLocal: false, isDefinition: false, scopeLine: 483, flags: DIFlagPrototyped, isOptimized: false)
!751 = !DISubroutineType(types: !752)
!752 = !{!734, !658, !81}
!753 = !DISubprogram(name: "operator=", linkageName: "_ZN11ap_int_baseILi34ELb1EEaSEt", scope: !630, file: !631, line: 484, type: !754, isLocal: false, isDefinition: false, scopeLine: 484, flags: DIFlagPrototyped, isOptimized: false)
!754 = !DISubroutineType(types: !755)
!755 = !{!734, !658, !86}
!756 = !DISubprogram(name: "operator=", linkageName: "_ZN11ap_int_baseILi34ELb1EEaSEi", scope: !630, file: !631, line: 485, type: !757, isLocal: false, isDefinition: false, scopeLine: 485, flags: DIFlagPrototyped, isOptimized: false)
!757 = !DISubroutineType(types: !758)
!758 = !{!734, !658, !21}
!759 = !DISubprogram(name: "operator=", linkageName: "_ZN11ap_int_baseILi34ELb1EEaSEj", scope: !630, file: !631, line: 486, type: !760, isLocal: false, isDefinition: false, scopeLine: 486, flags: DIFlagPrototyped, isOptimized: false)
!760 = !DISubroutineType(types: !761)
!761 = !{!734, !658, !34}
!762 = !DISubprogram(name: "operator=", linkageName: "_ZN11ap_int_baseILi34ELb1EEaSEl", scope: !630, file: !631, line: 487, type: !763, isLocal: false, isDefinition: false, scopeLine: 487, flags: DIFlagPrototyped, isOptimized: false)
!763 = !DISubroutineType(types: !764)
!764 = !{!734, !658, !98}
!765 = !DISubprogram(name: "operator=", linkageName: "_ZN11ap_int_baseILi34ELb1EEaSEm", scope: !630, file: !631, line: 488, type: !766, isLocal: false, isDefinition: false, scopeLine: 488, flags: DIFlagPrototyped, isOptimized: false)
!766 = !DISubroutineType(types: !767)
!767 = !{!734, !658, !103}
!768 = !DISubprogram(name: "operator=", linkageName: "_ZN11ap_int_baseILi34ELb1EEaSEx", scope: !630, file: !631, line: 489, type: !769, isLocal: false, isDefinition: false, scopeLine: 489, flags: DIFlagPrototyped, isOptimized: false)
!769 = !DISubroutineType(types: !770)
!770 = !{!734, !658, !693}
!771 = !DISubprogram(name: "operator=", linkageName: "_ZN11ap_int_baseILi34ELb1EEaSEy", scope: !630, file: !631, line: 490, type: !772, isLocal: false, isDefinition: false, scopeLine: 490, flags: DIFlagPrototyped, isOptimized: false)
!772 = !DISubroutineType(types: !773)
!773 = !{!734, !658, !699}
!774 = !DISubprogram(name: "operator long long", linkageName: "_ZNK11ap_int_baseILi34ELb1EEcvxEv", scope: !630, file: !631, line: 541, type: !775, isLocal: false, isDefinition: false, scopeLine: 541, flags: DIFlagPrototyped, isOptimized: false)
!775 = !DISubroutineType(types: !776)
!776 = !{!777, !653}
!777 = !DIDerivedType(tag: DW_TAG_typedef, name: "RetType", scope: !630, file: !631, line: 128, baseType: !778)
!778 = !DIDerivedType(tag: DW_TAG_typedef, name: "Type", scope: !528, file: !631, line: 46, baseType: !693)
!779 = !DISubprogram(name: "to_bool", linkageName: "_ZNK11ap_int_baseILi34ELb1EE7to_boolEv", scope: !630, file: !631, line: 546, type: !780, isLocal: false, isDefinition: false, scopeLine: 546, flags: DIFlagPrototyped, isOptimized: false)
!780 = !DISubroutineType(types: !781)
!781 = !{!45, !653}
!782 = !DISubprogram(name: "to_char", linkageName: "_ZNK11ap_int_baseILi34ELb1EE7to_charEv", scope: !630, file: !631, line: 547, type: !783, isLocal: false, isDefinition: false, scopeLine: 547, flags: DIFlagPrototyped, isOptimized: false)
!783 = !DISubroutineType(types: !784)
!784 = !{!66, !653}
!785 = !DISubprogram(name: "to_schar", linkageName: "_ZNK11ap_int_baseILi34ELb1EE8to_scharEv", scope: !630, file: !631, line: 548, type: !786, isLocal: false, isDefinition: false, scopeLine: 548, flags: DIFlagPrototyped, isOptimized: false)
!786 = !DISubroutineType(types: !787)
!787 = !{!71, !653}
!788 = !DISubprogram(name: "to_uchar", linkageName: "_ZNK11ap_int_baseILi34ELb1EE8to_ucharEv", scope: !630, file: !631, line: 549, type: !789, isLocal: false, isDefinition: false, scopeLine: 549, flags: DIFlagPrototyped, isOptimized: false)
!789 = !DISubroutineType(types: !790)
!790 = !{!76, !653}
!791 = !DISubprogram(name: "to_short", linkageName: "_ZNK11ap_int_baseILi34ELb1EE8to_shortEv", scope: !630, file: !631, line: 550, type: !792, isLocal: false, isDefinition: false, scopeLine: 550, flags: DIFlagPrototyped, isOptimized: false)
!792 = !DISubroutineType(types: !793)
!793 = !{!81, !653}
!794 = !DISubprogram(name: "to_ushort", linkageName: "_ZNK11ap_int_baseILi34ELb1EE9to_ushortEv", scope: !630, file: !631, line: 551, type: !795, isLocal: false, isDefinition: false, scopeLine: 551, flags: DIFlagPrototyped, isOptimized: false)
!795 = !DISubroutineType(types: !796)
!796 = !{!86, !653}
!797 = !DISubprogram(name: "to_int", linkageName: "_ZNK11ap_int_baseILi34ELb1EE6to_intEv", scope: !630, file: !631, line: 552, type: !651, isLocal: false, isDefinition: false, scopeLine: 552, flags: DIFlagPrototyped, isOptimized: false)
!798 = !DISubprogram(name: "to_uint", linkageName: "_ZNK11ap_int_baseILi34ELb1EE7to_uintEv", scope: !630, file: !631, line: 553, type: !799, isLocal: false, isDefinition: false, scopeLine: 553, flags: DIFlagPrototyped, isOptimized: false)
!799 = !DISubroutineType(types: !800)
!800 = !{!34, !653}
!801 = !DISubprogram(name: "to_long", linkageName: "_ZNK11ap_int_baseILi34ELb1EE7to_longEv", scope: !630, file: !631, line: 554, type: !802, isLocal: false, isDefinition: false, scopeLine: 554, flags: DIFlagPrototyped, isOptimized: false)
!802 = !DISubroutineType(types: !803)
!803 = !{!98, !653}
!804 = !DISubprogram(name: "to_ulong", linkageName: "_ZNK11ap_int_baseILi34ELb1EE8to_ulongEv", scope: !630, file: !631, line: 555, type: !805, isLocal: false, isDefinition: false, scopeLine: 555, flags: DIFlagPrototyped, isOptimized: false)
!805 = !DISubroutineType(types: !806)
!806 = !{!103, !653}
!807 = !DISubprogram(name: "to_int64", linkageName: "_ZNK11ap_int_baseILi34ELb1EE8to_int64Ev", scope: !630, file: !631, line: 556, type: !808, isLocal: false, isDefinition: false, scopeLine: 556, flags: DIFlagPrototyped, isOptimized: false)
!808 = !DISubroutineType(types: !809)
!809 = !{!693, !653}
!810 = !DISubprogram(name: "to_uint64", linkageName: "_ZNK11ap_int_baseILi34ELb1EE9to_uint64Ev", scope: !630, file: !631, line: 557, type: !811, isLocal: false, isDefinition: false, scopeLine: 557, flags: DIFlagPrototyped, isOptimized: false)
!811 = !DISubroutineType(types: !812)
!812 = !{!699, !653}
!813 = !DISubprogram(name: "to_half", linkageName: "_ZNK11ap_int_baseILi34ELb1EE7to_halfEv", scope: !630, file: !631, line: 558, type: !814, isLocal: false, isDefinition: false, scopeLine: 558, flags: DIFlagPrototyped, isOptimized: false)
!814 = !DISubroutineType(types: !815)
!815 = !{!703, !653}
!816 = !DISubprogram(name: "to_float", linkageName: "_ZNK11ap_int_baseILi34ELb1EE8to_floatEv", scope: !630, file: !631, line: 559, type: !817, isLocal: false, isDefinition: false, scopeLine: 559, flags: DIFlagPrototyped, isOptimized: false)
!817 = !DISubroutineType(types: !818)
!818 = !{!13, !653}
!819 = !DISubprogram(name: "to_double", linkageName: "_ZNK11ap_int_baseILi34ELb1EE9to_doubleEv", scope: !630, file: !631, line: 560, type: !820, isLocal: false, isDefinition: false, scopeLine: 560, flags: DIFlagPrototyped, isOptimized: false)
!820 = !DISubroutineType(types: !821)
!821 = !{!128, !653}
!822 = !DISubprogram(name: "length", linkageName: "_ZNVK11ap_int_baseILi34ELb1EE6lengthEv", scope: !630, file: !631, line: 584, type: !823, isLocal: false, isDefinition: false, scopeLine: 584, flags: DIFlagPrototyped, isOptimized: false)
!823 = !DISubroutineType(types: !824)
!824 = !{!21, !825}
!825 = !DIDerivedType(tag: DW_TAG_pointer_type, baseType: !729, size: 64, flags: DIFlagArtificial | DIFlagObjectPointer)
!826 = !DISubprogram(name: "length", linkageName: "_ZNK11ap_int_baseILi34ELb1EE6lengthEv", scope: !630, file: !631, line: 585, type: !651, isLocal: false, isDefinition: false, scopeLine: 585, flags: DIFlagPrototyped, isOptimized: false)
!827 = !DISubprogram(name: "iszero", linkageName: "_ZNK11ap_int_baseILi34ELb1EE6iszeroEv", scope: !630, file: !631, line: 588, type: !780, isLocal: false, isDefinition: false, scopeLine: 588, flags: DIFlagPrototyped, isOptimized: false)
!828 = !DISubprogram(name: "is_zero", linkageName: "_ZNK11ap_int_baseILi34ELb1EE7is_zeroEv", scope: !630, file: !631, line: 591, type: !780, isLocal: false, isDefinition: false, scopeLine: 591, flags: DIFlagPrototyped, isOptimized: false)
!829 = !DISubprogram(name: "sign", linkageName: "_ZNK11ap_int_baseILi34ELb1EE4signEv", scope: !630, file: !631, line: 594, type: !780, isLocal: false, isDefinition: false, scopeLine: 594, flags: DIFlagPrototyped, isOptimized: false)
!830 = !DISubprogram(name: "clear", linkageName: "_ZN11ap_int_baseILi34ELb1EE5clearEi", scope: !630, file: !631, line: 603, type: !831, isLocal: false, isDefinition: false, scopeLine: 603, flags: DIFlagPrototyped, isOptimized: false)
!831 = !DISubroutineType(types: !832)
!832 = !{null, !658, !21}
!833 = !DISubprogram(name: "invert", linkageName: "_ZN11ap_int_baseILi34ELb1EE6invertEi", scope: !630, file: !631, line: 609, type: !831, isLocal: false, isDefinition: false, scopeLine: 609, flags: DIFlagPrototyped, isOptimized: false)
!834 = !DISubprogram(name: "test", linkageName: "_ZNK11ap_int_baseILi34ELb1EE4testEi", scope: !630, file: !631, line: 618, type: !835, isLocal: false, isDefinition: false, scopeLine: 618, flags: DIFlagPrototyped, isOptimized: false)
!835 = !DISubroutineType(types: !836)
!836 = !{!45, !653, !21}
!837 = !DISubprogram(name: "get", linkageName: "_ZN11ap_int_baseILi34ELb1EE3getEv", scope: !630, file: !631, line: 624, type: !838, isLocal: false, isDefinition: false, scopeLine: 624, flags: DIFlagPrototyped, isOptimized: false)
!838 = !DISubroutineType(types: !839)
!839 = !{!734, !658}
!840 = !DISubprogram(name: "set", linkageName: "_ZN11ap_int_baseILi34ELb1EE3setEi", scope: !630, file: !631, line: 627, type: !831, isLocal: false, isDefinition: false, scopeLine: 627, flags: DIFlagPrototyped, isOptimized: false)
!841 = !DISubprogram(name: "set", linkageName: "_ZN11ap_int_baseILi34ELb1EE3setEib", scope: !630, file: !631, line: 633, type: !842, isLocal: false, isDefinition: false, scopeLine: 633, flags: DIFlagPrototyped, isOptimized: false)
!842 = !DISubroutineType(types: !843)
!843 = !{null, !658, !21, !45}
!844 = !DISubprogram(name: "lrotate", linkageName: "_ZN11ap_int_baseILi34ELb1EE7lrotateEi", scope: !630, file: !631, line: 640, type: !757, isLocal: false, isDefinition: false, scopeLine: 640, flags: DIFlagPrototyped, isOptimized: false)
!845 = !DISubprogram(name: "rrotate", linkageName: "_ZN11ap_int_baseILi34ELb1EE7rrotateEi", scope: !630, file: !631, line: 655, type: !757, isLocal: false, isDefinition: false, scopeLine: 655, flags: DIFlagPrototyped, isOptimized: false)
!846 = !DISubprogram(name: "reverse", linkageName: "_ZN11ap_int_baseILi34ELb1EE7reverseEv", scope: !630, file: !631, line: 670, type: !838, isLocal: false, isDefinition: false, scopeLine: 670, flags: DIFlagPrototyped, isOptimized: false)
!847 = !DISubprogram(name: "set_bit", linkageName: "_ZN11ap_int_baseILi34ELb1EE7set_bitEib", scope: !630, file: !631, line: 676, type: !842, isLocal: false, isDefinition: false, scopeLine: 676, flags: DIFlagPrototyped, isOptimized: false)
!848 = !DISubprogram(name: "get_bit", linkageName: "_ZNK11ap_int_baseILi34ELb1EE7get_bitEi", scope: !630, file: !631, line: 681, type: !835, isLocal: false, isDefinition: false, scopeLine: 681, flags: DIFlagPrototyped, isOptimized: false)
!849 = !DISubprogram(name: "b_not", linkageName: "_ZN11ap_int_baseILi34ELb1EE5b_notEv", scope: !630, file: !631, line: 686, type: !656, isLocal: false, isDefinition: false, scopeLine: 686, flags: DIFlagPrototyped, isOptimized: false)
!850 = !DISubprogram(name: "checkOverflowCsim", linkageName: "_ZNK11ap_int_baseILi34ELb1EE17checkOverflowCsimEibb", scope: !630, file: !631, line: 760, type: !851, isLocal: false, isDefinition: false, scopeLine: 760, flags: DIFlagPrototyped, isOptimized: false)
!851 = !DISubroutineType(types: !852)
!852 = !{!45, !653, !21, !45, !45}
!853 = !DISubprogram(name: "operator++", linkageName: "_ZN11ap_int_baseILi34ELb1EEppEv", scope: !630, file: !631, line: 865, type: !838, isLocal: false, isDefinition: false, scopeLine: 865, flags: DIFlagPrototyped, isOptimized: false)
!854 = !DISubprogram(name: "operator--", linkageName: "_ZN11ap_int_baseILi34ELb1EEmmEv", scope: !630, file: !631, line: 869, type: !838, isLocal: false, isDefinition: false, scopeLine: 869, flags: DIFlagPrototyped, isOptimized: false)
!855 = !DISubprogram(name: "operator++", linkageName: "_ZN11ap_int_baseILi34ELb1EEppEi", scope: !630, file: !631, line: 877, type: !856, isLocal: false, isDefinition: false, scopeLine: 877, flags: DIFlagPrototyped, isOptimized: false)
!856 = !DISubroutineType(types: !857)
!857 = !{!858, !658, !21}
!858 = !DIDerivedType(tag: DW_TAG_const_type, baseType: !859)
!859 = !DIDerivedType(tag: DW_TAG_typedef, name: "arg1", scope: !860, file: !631, line: 167, baseType: !861)
!860 = distinct !DICompositeType(tag: DW_TAG_structure_type, name: "RType<34, true>", scope: !630, file: !631, line: 134, size: 8, flags: DIFlagTypePassByValue, elements: !4, templateParams: !624, identifier: "_ZTSN11ap_int_baseILi34ELb1EE5RTypeILi34ELb1EEE")
!861 = !DIDerivedType(tag: DW_TAG_typedef, name: "type", scope: !623, file: !631, line: 103, baseType: !626)
!862 = !DISubprogram(name: "operator--", linkageName: "_ZN11ap_int_baseILi34ELb1EEmmEi", scope: !630, file: !631, line: 882, type: !856, isLocal: false, isDefinition: false, scopeLine: 882, flags: DIFlagPrototyped, isOptimized: false)
!863 = !DISubprogram(name: "operator+", linkageName: "_ZNK11ap_int_baseILi34ELb1EEpsEv", scope: !630, file: !631, line: 891, type: !864, isLocal: false, isDefinition: false, scopeLine: 891, flags: DIFlagPrototyped, isOptimized: false)
!864 = !DISubroutineType(types: !865)
!865 = !{!859, !653}
!866 = !DISubprogram(name: "operator-", linkageName: "_ZNK11ap_int_baseILi34ELb1EEngEv", scope: !630, file: !631, line: 894, type: !867, isLocal: false, isDefinition: false, scopeLine: 894, flags: DIFlagPrototyped, isOptimized: false)
!867 = !DISubroutineType(types: !868)
!868 = !{!869, !653}
!869 = !DIDerivedType(tag: DW_TAG_typedef, name: "minus", scope: !870, file: !631, line: 163, baseType: !871)
!870 = distinct !DICompositeType(tag: DW_TAG_structure_type, name: "RType<1, false>", scope: !630, file: !631, line: 134, size: 8, flags: DIFlagTypePassByValue, elements: !4, templateParams: !376, identifier: "_ZTSN11ap_int_baseILi34ELb1EE5RTypeILi1ELb0EEE")
!871 = !DIDerivedType(tag: DW_TAG_typedef, name: "type", scope: !872, file: !631, line: 103, baseType: !875)
!872 = distinct !DICompositeType(tag: DW_TAG_structure_type, name: "_ap_int_factory<35, true>", file: !631, line: 103, size: 8, flags: DIFlagTypePassByValue, elements: !4, templateParams: !873, identifier: "_ZTS15_ap_int_factoryILi35ELb1EE")
!873 = !{!874, !382}
!874 = !DITemplateValueParameter(name: "_AP_W2", type: !21, value: i32 35)
!875 = distinct !DICompositeType(tag: DW_TAG_structure_type, name: "ap_int<35>", file: !627, line: 18, size: 64, flags: DIFlagTypePassByValue, elements: !876, templateParams: !1582, identifier: "_ZTS6ap_intILi35EE")
!876 = !{!877, !1504, !1508, !1512, !1515, !1518, !1521, !1524, !1527, !1530, !1533, !1536, !1539, !1542, !1545, !1548, !1551, !1554, !1557, !1560, !1563, !1569, !1575, !1579}
!877 = !DIDerivedType(tag: DW_TAG_inheritance, scope: !875, baseType: !878)
!878 = distinct !DICompositeType(tag: DW_TAG_structure_type, name: "ap_int_base<35, true>", file: !631, line: 108, size: 64, flags: DIFlagTypePassByValue, elements: !879, templateParams: !1502, identifier: "_ZTS11ap_int_baseILi35ELb1EE")
!879 = !{!880, !894, !895, !896, !901, !905, !908, !911, !914, !917, !920, !923, !926, !929, !932, !935, !938, !941, !944, !947, !950, !953, !956, !961, !965, !970, !971, !975, !978, !981, !984, !987, !990, !993, !996, !999, !1002, !1005, !1008, !1011, !1014, !1018, !1021, !1024, !1027, !1030, !1033, !1036, !1037, !1040, !1043, !1046, !1049, !1052, !1055, !1058, !1061, !1065, !1066, !1067, !1068, !1069, !1072, !1073, !1076, !1079, !1080, !1083, !1084, !1085, !1086, !1087, !1088, !1089, !1092, !1093, !1094, !1100, !1101, !1104, !1468, !1469, !1470, !1474, !1477, !1480, !1483, !1484, !1485, !1489, !1490, !1491, !1492, !1493, !1494, !1495, !1496, !1497, !1498, !1499}
!880 = !DIDerivedType(tag: DW_TAG_inheritance, scope: !878, baseType: !881)
!881 = distinct !DICompositeType(tag: DW_TAG_structure_type, name: "ssdm_int<35, true>", file: !635, line: 509, size: 64, flags: DIFlagTypePassByValue, elements: !882, templateParams: !892, identifier: "_ZTS8ssdm_intILi35ELb1EE")
!882 = !{!883, !885, !889}
!883 = !DIDerivedType(tag: DW_TAG_member, name: "V", scope: !881, file: !635, line: 511, baseType: !884, size: 35, align: 64)
!884 = !DIBasicType(name: "int35", size: 35, encoding: DW_ATE_signed)
!885 = !DISubprogram(name: "ssdm_int", scope: !881, file: !635, line: 512, type: !886, isLocal: false, isDefinition: false, scopeLine: 512, flags: DIFlagPrototyped, isOptimized: false)
!886 = !DISubroutineType(types: !887)
!887 = !{null, !888}
!888 = !DIDerivedType(tag: DW_TAG_pointer_type, baseType: !881, size: 64, flags: DIFlagArtificial | DIFlagObjectPointer)
!889 = !DISubprogram(name: "ssdm_int", scope: !881, file: !635, line: 513, type: !890, isLocal: false, isDefinition: false, scopeLine: 513, flags: DIFlagPrototyped, isOptimized: false)
!890 = !DISubroutineType(types: !891)
!891 = !{null, !888, !884}
!892 = !{!893, !402}
!893 = !DITemplateValueParameter(name: "_AP_N", type: !21, value: i32 35)
!894 = !DIDerivedType(tag: DW_TAG_member, name: "width", scope: !878, file: !631, line: 130, baseType: !47, flags: DIFlagStaticMember, extraData: i32 35)
!895 = !DIDerivedType(tag: DW_TAG_member, name: "sign_flag", scope: !878, file: !631, line: 131, baseType: !49, flags: DIFlagStaticMember, extraData: i1 true)
!896 = !DISubprogram(name: "countLeadingOnes", linkageName: "_ZNK11ap_int_baseILi35ELb1EE16countLeadingOnesEv", scope: !878, file: !631, line: 110, type: !897, isLocal: false, isDefinition: false, scopeLine: 110, flags: DIFlagPrivate | DIFlagPrototyped, isOptimized: false)
!897 = !DISubroutineType(types: !898)
!898 = !{!21, !899}
!899 = !DIDerivedType(tag: DW_TAG_pointer_type, baseType: !900, size: 64, flags: DIFlagArtificial | DIFlagObjectPointer)
!900 = !DIDerivedType(tag: DW_TAG_const_type, baseType: !878)
!901 = !DISubprogram(name: "ap_int_base", scope: !878, file: !631, line: 175, type: !902, isLocal: false, isDefinition: false, scopeLine: 175, flags: DIFlagPrototyped, isOptimized: false)
!902 = !DISubroutineType(types: !903)
!903 = !{null, !904}
!904 = !DIDerivedType(tag: DW_TAG_pointer_type, baseType: !878, size: 64, flags: DIFlagArtificial | DIFlagObjectPointer)
!905 = !DISubprogram(name: "ap_int_base", scope: !878, file: !631, line: 208, type: !906, isLocal: false, isDefinition: false, scopeLine: 208, flags: DIFlagPrototyped, isOptimized: false)
!906 = !DISubroutineType(types: !907)
!907 = !{null, !904, !49}
!908 = !DISubprogram(name: "ap_int_base", scope: !878, file: !631, line: 209, type: !909, isLocal: false, isDefinition: false, scopeLine: 209, flags: DIFlagPrototyped, isOptimized: false)
!909 = !DISubroutineType(types: !910)
!910 = !{null, !904, !65}
!911 = !DISubprogram(name: "ap_int_base", scope: !878, file: !631, line: 210, type: !912, isLocal: false, isDefinition: false, scopeLine: 210, flags: DIFlagPrototyped, isOptimized: false)
!912 = !DISubroutineType(types: !913)
!913 = !{null, !904, !70}
!914 = !DISubprogram(name: "ap_int_base", scope: !878, file: !631, line: 211, type: !915, isLocal: false, isDefinition: false, scopeLine: 211, flags: DIFlagPrototyped, isOptimized: false)
!915 = !DISubroutineType(types: !916)
!916 = !{null, !904, !75}
!917 = !DISubprogram(name: "ap_int_base", scope: !878, file: !631, line: 212, type: !918, isLocal: false, isDefinition: false, scopeLine: 212, flags: DIFlagPrototyped, isOptimized: false)
!918 = !DISubroutineType(types: !919)
!919 = !{null, !904, !80}
!920 = !DISubprogram(name: "ap_int_base", scope: !878, file: !631, line: 213, type: !921, isLocal: false, isDefinition: false, scopeLine: 213, flags: DIFlagPrototyped, isOptimized: false)
!921 = !DISubroutineType(types: !922)
!922 = !{null, !904, !85}
!923 = !DISubprogram(name: "ap_int_base", scope: !878, file: !631, line: 214, type: !924, isLocal: false, isDefinition: false, scopeLine: 214, flags: DIFlagPrototyped, isOptimized: false)
!924 = !DISubroutineType(types: !925)
!925 = !{null, !904, !47}
!926 = !DISubprogram(name: "ap_int_base", scope: !878, file: !631, line: 215, type: !927, isLocal: false, isDefinition: false, scopeLine: 215, flags: DIFlagPrototyped, isOptimized: false)
!927 = !DISubroutineType(types: !928)
!928 = !{null, !904, !93}
!929 = !DISubprogram(name: "ap_int_base", scope: !878, file: !631, line: 216, type: !930, isLocal: false, isDefinition: false, scopeLine: 216, flags: DIFlagPrototyped, isOptimized: false)
!930 = !DISubroutineType(types: !931)
!931 = !{null, !904, !97}
!932 = !DISubprogram(name: "ap_int_base", scope: !878, file: !631, line: 217, type: !933, isLocal: false, isDefinition: false, scopeLine: 217, flags: DIFlagPrototyped, isOptimized: false)
!933 = !DISubroutineType(types: !934)
!934 = !{null, !904, !102}
!935 = !DISubprogram(name: "ap_int_base", scope: !878, file: !631, line: 218, type: !936, isLocal: false, isDefinition: false, scopeLine: 218, flags: DIFlagPrototyped, isOptimized: false)
!936 = !DISubroutineType(types: !937)
!937 = !{null, !904, !692}
!938 = !DISubprogram(name: "ap_int_base", scope: !878, file: !631, line: 219, type: !939, isLocal: false, isDefinition: false, scopeLine: 219, flags: DIFlagPrototyped, isOptimized: false)
!939 = !DISubroutineType(types: !940)
!940 = !{null, !904, !698}
!941 = !DISubprogram(name: "ap_int_base", scope: !878, file: !631, line: 224, type: !942, isLocal: false, isDefinition: false, scopeLine: 224, flags: DIFlagPrototyped, isOptimized: false)
!942 = !DISubroutineType(types: !943)
!943 = !{null, !904, !703}
!944 = !DISubprogram(name: "ap_int_base", scope: !878, file: !631, line: 230, type: !945, isLocal: false, isDefinition: false, scopeLine: 230, flags: DIFlagPrototyped, isOptimized: false)
!945 = !DISubroutineType(types: !946)
!946 = !{null, !904, !13}
!947 = !DISubprogram(name: "ap_int_base", scope: !878, file: !631, line: 289, type: !948, isLocal: false, isDefinition: false, scopeLine: 289, flags: DIFlagPrototyped, isOptimized: false)
!948 = !DISubroutineType(types: !949)
!949 = !{null, !904, !128}
!950 = !DISubprogram(name: "ap_int_base", scope: !878, file: !631, line: 385, type: !951, isLocal: false, isDefinition: false, scopeLine: 385, flags: DIFlagPrototyped, isOptimized: false)
!951 = !DISubroutineType(types: !952)
!952 = !{null, !904, !132}
!953 = !DISubprogram(name: "ap_int_base", scope: !878, file: !631, line: 391, type: !954, isLocal: false, isDefinition: false, scopeLine: 391, flags: DIFlagPrototyped, isOptimized: false)
!954 = !DISubroutineType(types: !955)
!955 = !{null, !904, !132, !71}
!956 = !DISubprogram(name: "read", linkageName: "_ZNV11ap_int_baseILi35ELb1EE4readEv", scope: !878, file: !631, line: 413, type: !957, isLocal: false, isDefinition: false, scopeLine: 413, flags: DIFlagPrototyped, isOptimized: false)
!957 = !DISubroutineType(types: !958)
!958 = !{!878, !959}
!959 = !DIDerivedType(tag: DW_TAG_pointer_type, baseType: !960, size: 64, flags: DIFlagArtificial | DIFlagObjectPointer)
!960 = !DIDerivedType(tag: DW_TAG_volatile_type, baseType: !878)
!961 = !DISubprogram(name: "write", linkageName: "_ZNV11ap_int_baseILi35ELb1EE5writeERKS0_", scope: !878, file: !631, line: 420, type: !962, isLocal: false, isDefinition: false, scopeLine: 420, flags: DIFlagPrototyped, isOptimized: false)
!962 = !DISubroutineType(types: !963)
!963 = !{null, !959, !964}
!964 = !DIDerivedType(tag: DW_TAG_reference_type, baseType: !900, size: 64)
!965 = !DISubprogram(name: "operator=", linkageName: "_ZNV11ap_int_baseILi35ELb1EEaSERVKS0_", scope: !878, file: !631, line: 432, type: !966, isLocal: false, isDefinition: false, scopeLine: 432, flags: DIFlagPrototyped, isOptimized: false)
!966 = !DISubroutineType(types: !967)
!967 = !{null, !959, !968}
!968 = !DIDerivedType(tag: DW_TAG_reference_type, baseType: !969, size: 64)
!969 = !DIDerivedType(tag: DW_TAG_const_type, baseType: !960)
!970 = !DISubprogram(name: "operator=", linkageName: "_ZNV11ap_int_baseILi35ELb1EEaSERKS0_", scope: !878, file: !631, line: 442, type: !962, isLocal: false, isDefinition: false, scopeLine: 442, flags: DIFlagPrototyped, isOptimized: false)
!971 = !DISubprogram(name: "operator=", linkageName: "_ZN11ap_int_baseILi35ELb1EEaSERVKS0_", scope: !878, file: !631, line: 459, type: !972, isLocal: false, isDefinition: false, scopeLine: 459, flags: DIFlagPrototyped, isOptimized: false)
!972 = !DISubroutineType(types: !973)
!973 = !{!974, !904, !968}
!974 = !DIDerivedType(tag: DW_TAG_reference_type, baseType: !878, size: 64)
!975 = !DISubprogram(name: "operator=", linkageName: "_ZN11ap_int_baseILi35ELb1EEaSERKS0_", scope: !878, file: !631, line: 465, type: !976, isLocal: false, isDefinition: false, scopeLine: 465, flags: DIFlagPrototyped, isOptimized: false)
!976 = !DISubroutineType(types: !977)
!977 = !{!974, !904, !964}
!978 = !DISubprogram(name: "operator=", linkageName: "_ZN11ap_int_baseILi35ELb1EEaSEb", scope: !878, file: !631, line: 479, type: !979, isLocal: false, isDefinition: false, scopeLine: 479, flags: DIFlagPrototyped, isOptimized: false)
!979 = !DISubroutineType(types: !980)
!980 = !{!974, !904, !45}
!981 = !DISubprogram(name: "operator=", linkageName: "_ZN11ap_int_baseILi35ELb1EEaSEc", scope: !878, file: !631, line: 480, type: !982, isLocal: false, isDefinition: false, scopeLine: 480, flags: DIFlagPrototyped, isOptimized: false)
!982 = !DISubroutineType(types: !983)
!983 = !{!974, !904, !66}
!984 = !DISubprogram(name: "operator=", linkageName: "_ZN11ap_int_baseILi35ELb1EEaSEa", scope: !878, file: !631, line: 481, type: !985, isLocal: false, isDefinition: false, scopeLine: 481, flags: DIFlagPrototyped, isOptimized: false)
!985 = !DISubroutineType(types: !986)
!986 = !{!974, !904, !71}
!987 = !DISubprogram(name: "operator=", linkageName: "_ZN11ap_int_baseILi35ELb1EEaSEh", scope: !878, file: !631, line: 482, type: !988, isLocal: false, isDefinition: false, scopeLine: 482, flags: DIFlagPrototyped, isOptimized: false)
!988 = !DISubroutineType(types: !989)
!989 = !{!974, !904, !76}
!990 = !DISubprogram(name: "operator=", linkageName: "_ZN11ap_int_baseILi35ELb1EEaSEs", scope: !878, file: !631, line: 483, type: !991, isLocal: false, isDefinition: false, scopeLine: 483, flags: DIFlagPrototyped, isOptimized: false)
!991 = !DISubroutineType(types: !992)
!992 = !{!974, !904, !81}
!993 = !DISubprogram(name: "operator=", linkageName: "_ZN11ap_int_baseILi35ELb1EEaSEt", scope: !878, file: !631, line: 484, type: !994, isLocal: false, isDefinition: false, scopeLine: 484, flags: DIFlagPrototyped, isOptimized: false)
!994 = !DISubroutineType(types: !995)
!995 = !{!974, !904, !86}
!996 = !DISubprogram(name: "operator=", linkageName: "_ZN11ap_int_baseILi35ELb1EEaSEi", scope: !878, file: !631, line: 485, type: !997, isLocal: false, isDefinition: false, scopeLine: 485, flags: DIFlagPrototyped, isOptimized: false)
!997 = !DISubroutineType(types: !998)
!998 = !{!974, !904, !21}
!999 = !DISubprogram(name: "operator=", linkageName: "_ZN11ap_int_baseILi35ELb1EEaSEj", scope: !878, file: !631, line: 486, type: !1000, isLocal: false, isDefinition: false, scopeLine: 486, flags: DIFlagPrototyped, isOptimized: false)
!1000 = !DISubroutineType(types: !1001)
!1001 = !{!974, !904, !34}
!1002 = !DISubprogram(name: "operator=", linkageName: "_ZN11ap_int_baseILi35ELb1EEaSEl", scope: !878, file: !631, line: 487, type: !1003, isLocal: false, isDefinition: false, scopeLine: 487, flags: DIFlagPrototyped, isOptimized: false)
!1003 = !DISubroutineType(types: !1004)
!1004 = !{!974, !904, !98}
!1005 = !DISubprogram(name: "operator=", linkageName: "_ZN11ap_int_baseILi35ELb1EEaSEm", scope: !878, file: !631, line: 488, type: !1006, isLocal: false, isDefinition: false, scopeLine: 488, flags: DIFlagPrototyped, isOptimized: false)
!1006 = !DISubroutineType(types: !1007)
!1007 = !{!974, !904, !103}
!1008 = !DISubprogram(name: "operator=", linkageName: "_ZN11ap_int_baseILi35ELb1EEaSEx", scope: !878, file: !631, line: 489, type: !1009, isLocal: false, isDefinition: false, scopeLine: 489, flags: DIFlagPrototyped, isOptimized: false)
!1009 = !DISubroutineType(types: !1010)
!1010 = !{!974, !904, !693}
!1011 = !DISubprogram(name: "operator=", linkageName: "_ZN11ap_int_baseILi35ELb1EEaSEy", scope: !878, file: !631, line: 490, type: !1012, isLocal: false, isDefinition: false, scopeLine: 490, flags: DIFlagPrototyped, isOptimized: false)
!1012 = !DISubroutineType(types: !1013)
!1013 = !{!974, !904, !699}
!1014 = !DISubprogram(name: "operator long long", linkageName: "_ZNK11ap_int_baseILi35ELb1EEcvxEv", scope: !878, file: !631, line: 541, type: !1015, isLocal: false, isDefinition: false, scopeLine: 541, flags: DIFlagPrototyped, isOptimized: false)
!1015 = !DISubroutineType(types: !1016)
!1016 = !{!1017, !899}
!1017 = !DIDerivedType(tag: DW_TAG_typedef, name: "RetType", scope: !878, file: !631, line: 128, baseType: !778)
!1018 = !DISubprogram(name: "to_bool", linkageName: "_ZNK11ap_int_baseILi35ELb1EE7to_boolEv", scope: !878, file: !631, line: 546, type: !1019, isLocal: false, isDefinition: false, scopeLine: 546, flags: DIFlagPrototyped, isOptimized: false)
!1019 = !DISubroutineType(types: !1020)
!1020 = !{!45, !899}
!1021 = !DISubprogram(name: "to_char", linkageName: "_ZNK11ap_int_baseILi35ELb1EE7to_charEv", scope: !878, file: !631, line: 547, type: !1022, isLocal: false, isDefinition: false, scopeLine: 547, flags: DIFlagPrototyped, isOptimized: false)
!1022 = !DISubroutineType(types: !1023)
!1023 = !{!66, !899}
!1024 = !DISubprogram(name: "to_schar", linkageName: "_ZNK11ap_int_baseILi35ELb1EE8to_scharEv", scope: !878, file: !631, line: 548, type: !1025, isLocal: false, isDefinition: false, scopeLine: 548, flags: DIFlagPrototyped, isOptimized: false)
!1025 = !DISubroutineType(types: !1026)
!1026 = !{!71, !899}
!1027 = !DISubprogram(name: "to_uchar", linkageName: "_ZNK11ap_int_baseILi35ELb1EE8to_ucharEv", scope: !878, file: !631, line: 549, type: !1028, isLocal: false, isDefinition: false, scopeLine: 549, flags: DIFlagPrototyped, isOptimized: false)
!1028 = !DISubroutineType(types: !1029)
!1029 = !{!76, !899}
!1030 = !DISubprogram(name: "to_short", linkageName: "_ZNK11ap_int_baseILi35ELb1EE8to_shortEv", scope: !878, file: !631, line: 550, type: !1031, isLocal: false, isDefinition: false, scopeLine: 550, flags: DIFlagPrototyped, isOptimized: false)
!1031 = !DISubroutineType(types: !1032)
!1032 = !{!81, !899}
!1033 = !DISubprogram(name: "to_ushort", linkageName: "_ZNK11ap_int_baseILi35ELb1EE9to_ushortEv", scope: !878, file: !631, line: 551, type: !1034, isLocal: false, isDefinition: false, scopeLine: 551, flags: DIFlagPrototyped, isOptimized: false)
!1034 = !DISubroutineType(types: !1035)
!1035 = !{!86, !899}
!1036 = !DISubprogram(name: "to_int", linkageName: "_ZNK11ap_int_baseILi35ELb1EE6to_intEv", scope: !878, file: !631, line: 552, type: !897, isLocal: false, isDefinition: false, scopeLine: 552, flags: DIFlagPrototyped, isOptimized: false)
!1037 = !DISubprogram(name: "to_uint", linkageName: "_ZNK11ap_int_baseILi35ELb1EE7to_uintEv", scope: !878, file: !631, line: 553, type: !1038, isLocal: false, isDefinition: false, scopeLine: 553, flags: DIFlagPrototyped, isOptimized: false)
!1038 = !DISubroutineType(types: !1039)
!1039 = !{!34, !899}
!1040 = !DISubprogram(name: "to_long", linkageName: "_ZNK11ap_int_baseILi35ELb1EE7to_longEv", scope: !878, file: !631, line: 554, type: !1041, isLocal: false, isDefinition: false, scopeLine: 554, flags: DIFlagPrototyped, isOptimized: false)
!1041 = !DISubroutineType(types: !1042)
!1042 = !{!98, !899}
!1043 = !DISubprogram(name: "to_ulong", linkageName: "_ZNK11ap_int_baseILi35ELb1EE8to_ulongEv", scope: !878, file: !631, line: 555, type: !1044, isLocal: false, isDefinition: false, scopeLine: 555, flags: DIFlagPrototyped, isOptimized: false)
!1044 = !DISubroutineType(types: !1045)
!1045 = !{!103, !899}
!1046 = !DISubprogram(name: "to_int64", linkageName: "_ZNK11ap_int_baseILi35ELb1EE8to_int64Ev", scope: !878, file: !631, line: 556, type: !1047, isLocal: false, isDefinition: false, scopeLine: 556, flags: DIFlagPrototyped, isOptimized: false)
!1047 = !DISubroutineType(types: !1048)
!1048 = !{!693, !899}
!1049 = !DISubprogram(name: "to_uint64", linkageName: "_ZNK11ap_int_baseILi35ELb1EE9to_uint64Ev", scope: !878, file: !631, line: 557, type: !1050, isLocal: false, isDefinition: false, scopeLine: 557, flags: DIFlagPrototyped, isOptimized: false)
!1050 = !DISubroutineType(types: !1051)
!1051 = !{!699, !899}
!1052 = !DISubprogram(name: "to_half", linkageName: "_ZNK11ap_int_baseILi35ELb1EE7to_halfEv", scope: !878, file: !631, line: 558, type: !1053, isLocal: false, isDefinition: false, scopeLine: 558, flags: DIFlagPrototyped, isOptimized: false)
!1053 = !DISubroutineType(types: !1054)
!1054 = !{!703, !899}
!1055 = !DISubprogram(name: "to_float", linkageName: "_ZNK11ap_int_baseILi35ELb1EE8to_floatEv", scope: !878, file: !631, line: 559, type: !1056, isLocal: false, isDefinition: false, scopeLine: 559, flags: DIFlagPrototyped, isOptimized: false)
!1056 = !DISubroutineType(types: !1057)
!1057 = !{!13, !899}
!1058 = !DISubprogram(name: "to_double", linkageName: "_ZNK11ap_int_baseILi35ELb1EE9to_doubleEv", scope: !878, file: !631, line: 560, type: !1059, isLocal: false, isDefinition: false, scopeLine: 560, flags: DIFlagPrototyped, isOptimized: false)
!1059 = !DISubroutineType(types: !1060)
!1060 = !{!128, !899}
!1061 = !DISubprogram(name: "length", linkageName: "_ZNVK11ap_int_baseILi35ELb1EE6lengthEv", scope: !878, file: !631, line: 584, type: !1062, isLocal: false, isDefinition: false, scopeLine: 584, flags: DIFlagPrototyped, isOptimized: false)
!1062 = !DISubroutineType(types: !1063)
!1063 = !{!21, !1064}
!1064 = !DIDerivedType(tag: DW_TAG_pointer_type, baseType: !969, size: 64, flags: DIFlagArtificial | DIFlagObjectPointer)
!1065 = !DISubprogram(name: "length", linkageName: "_ZNK11ap_int_baseILi35ELb1EE6lengthEv", scope: !878, file: !631, line: 585, type: !897, isLocal: false, isDefinition: false, scopeLine: 585, flags: DIFlagPrototyped, isOptimized: false)
!1066 = !DISubprogram(name: "iszero", linkageName: "_ZNK11ap_int_baseILi35ELb1EE6iszeroEv", scope: !878, file: !631, line: 588, type: !1019, isLocal: false, isDefinition: false, scopeLine: 588, flags: DIFlagPrototyped, isOptimized: false)
!1067 = !DISubprogram(name: "is_zero", linkageName: "_ZNK11ap_int_baseILi35ELb1EE7is_zeroEv", scope: !878, file: !631, line: 591, type: !1019, isLocal: false, isDefinition: false, scopeLine: 591, flags: DIFlagPrototyped, isOptimized: false)
!1068 = !DISubprogram(name: "sign", linkageName: "_ZNK11ap_int_baseILi35ELb1EE4signEv", scope: !878, file: !631, line: 594, type: !1019, isLocal: false, isDefinition: false, scopeLine: 594, flags: DIFlagPrototyped, isOptimized: false)
!1069 = !DISubprogram(name: "clear", linkageName: "_ZN11ap_int_baseILi35ELb1EE5clearEi", scope: !878, file: !631, line: 603, type: !1070, isLocal: false, isDefinition: false, scopeLine: 603, flags: DIFlagPrototyped, isOptimized: false)
!1070 = !DISubroutineType(types: !1071)
!1071 = !{null, !904, !21}
!1072 = !DISubprogram(name: "invert", linkageName: "_ZN11ap_int_baseILi35ELb1EE6invertEi", scope: !878, file: !631, line: 609, type: !1070, isLocal: false, isDefinition: false, scopeLine: 609, flags: DIFlagPrototyped, isOptimized: false)
!1073 = !DISubprogram(name: "test", linkageName: "_ZNK11ap_int_baseILi35ELb1EE4testEi", scope: !878, file: !631, line: 618, type: !1074, isLocal: false, isDefinition: false, scopeLine: 618, flags: DIFlagPrototyped, isOptimized: false)
!1074 = !DISubroutineType(types: !1075)
!1075 = !{!45, !899, !21}
!1076 = !DISubprogram(name: "get", linkageName: "_ZN11ap_int_baseILi35ELb1EE3getEv", scope: !878, file: !631, line: 624, type: !1077, isLocal: false, isDefinition: false, scopeLine: 624, flags: DIFlagPrototyped, isOptimized: false)
!1077 = !DISubroutineType(types: !1078)
!1078 = !{!974, !904}
!1079 = !DISubprogram(name: "set", linkageName: "_ZN11ap_int_baseILi35ELb1EE3setEi", scope: !878, file: !631, line: 627, type: !1070, isLocal: false, isDefinition: false, scopeLine: 627, flags: DIFlagPrototyped, isOptimized: false)
!1080 = !DISubprogram(name: "set", linkageName: "_ZN11ap_int_baseILi35ELb1EE3setEib", scope: !878, file: !631, line: 633, type: !1081, isLocal: false, isDefinition: false, scopeLine: 633, flags: DIFlagPrototyped, isOptimized: false)
!1081 = !DISubroutineType(types: !1082)
!1082 = !{null, !904, !21, !45}
!1083 = !DISubprogram(name: "lrotate", linkageName: "_ZN11ap_int_baseILi35ELb1EE7lrotateEi", scope: !878, file: !631, line: 640, type: !997, isLocal: false, isDefinition: false, scopeLine: 640, flags: DIFlagPrototyped, isOptimized: false)
!1084 = !DISubprogram(name: "rrotate", linkageName: "_ZN11ap_int_baseILi35ELb1EE7rrotateEi", scope: !878, file: !631, line: 655, type: !997, isLocal: false, isDefinition: false, scopeLine: 655, flags: DIFlagPrototyped, isOptimized: false)
!1085 = !DISubprogram(name: "reverse", linkageName: "_ZN11ap_int_baseILi35ELb1EE7reverseEv", scope: !878, file: !631, line: 670, type: !1077, isLocal: false, isDefinition: false, scopeLine: 670, flags: DIFlagPrototyped, isOptimized: false)
!1086 = !DISubprogram(name: "set_bit", linkageName: "_ZN11ap_int_baseILi35ELb1EE7set_bitEib", scope: !878, file: !631, line: 676, type: !1081, isLocal: false, isDefinition: false, scopeLine: 676, flags: DIFlagPrototyped, isOptimized: false)
!1087 = !DISubprogram(name: "get_bit", linkageName: "_ZNK11ap_int_baseILi35ELb1EE7get_bitEi", scope: !878, file: !631, line: 681, type: !1074, isLocal: false, isDefinition: false, scopeLine: 681, flags: DIFlagPrototyped, isOptimized: false)
!1088 = !DISubprogram(name: "b_not", linkageName: "_ZN11ap_int_baseILi35ELb1EE5b_notEv", scope: !878, file: !631, line: 686, type: !902, isLocal: false, isDefinition: false, scopeLine: 686, flags: DIFlagPrototyped, isOptimized: false)
!1089 = !DISubprogram(name: "checkOverflowCsim", linkageName: "_ZNK11ap_int_baseILi35ELb1EE17checkOverflowCsimEibb", scope: !878, file: !631, line: 760, type: !1090, isLocal: false, isDefinition: false, scopeLine: 760, flags: DIFlagPrototyped, isOptimized: false)
!1090 = !DISubroutineType(types: !1091)
!1091 = !{!45, !899, !21, !45, !45}
!1092 = !DISubprogram(name: "operator++", linkageName: "_ZN11ap_int_baseILi35ELb1EEppEv", scope: !878, file: !631, line: 865, type: !1077, isLocal: false, isDefinition: false, scopeLine: 865, flags: DIFlagPrototyped, isOptimized: false)
!1093 = !DISubprogram(name: "operator--", linkageName: "_ZN11ap_int_baseILi35ELb1EEmmEv", scope: !878, file: !631, line: 869, type: !1077, isLocal: false, isDefinition: false, scopeLine: 869, flags: DIFlagPrototyped, isOptimized: false)
!1094 = !DISubprogram(name: "operator++", linkageName: "_ZN11ap_int_baseILi35ELb1EEppEi", scope: !878, file: !631, line: 877, type: !1095, isLocal: false, isDefinition: false, scopeLine: 877, flags: DIFlagPrototyped, isOptimized: false)
!1095 = !DISubroutineType(types: !1096)
!1096 = !{!1097, !904, !21}
!1097 = !DIDerivedType(tag: DW_TAG_const_type, baseType: !1098)
!1098 = !DIDerivedType(tag: DW_TAG_typedef, name: "arg1", scope: !1099, file: !631, line: 167, baseType: !871)
!1099 = distinct !DICompositeType(tag: DW_TAG_structure_type, name: "RType<35, true>", scope: !878, file: !631, line: 134, size: 8, flags: DIFlagTypePassByValue, elements: !4, templateParams: !873, identifier: "_ZTSN11ap_int_baseILi35ELb1EE5RTypeILi35ELb1EEE")
!1100 = !DISubprogram(name: "operator--", linkageName: "_ZN11ap_int_baseILi35ELb1EEmmEi", scope: !878, file: !631, line: 882, type: !1095, isLocal: false, isDefinition: false, scopeLine: 882, flags: DIFlagPrototyped, isOptimized: false)
!1101 = !DISubprogram(name: "operator+", linkageName: "_ZNK11ap_int_baseILi35ELb1EEpsEv", scope: !878, file: !631, line: 891, type: !1102, isLocal: false, isDefinition: false, scopeLine: 891, flags: DIFlagPrototyped, isOptimized: false)
!1102 = !DISubroutineType(types: !1103)
!1103 = !{!1098, !899}
!1104 = !DISubprogram(name: "operator-", linkageName: "_ZNK11ap_int_baseILi35ELb1EEngEv", scope: !878, file: !631, line: 894, type: !1105, isLocal: false, isDefinition: false, scopeLine: 894, flags: DIFlagPrototyped, isOptimized: false)
!1105 = !DISubroutineType(types: !1106)
!1106 = !{!1107, !899}
!1107 = !DIDerivedType(tag: DW_TAG_typedef, name: "minus", scope: !1108, file: !631, line: 163, baseType: !1109)
!1108 = distinct !DICompositeType(tag: DW_TAG_structure_type, name: "RType<1, false>", scope: !878, file: !631, line: 134, size: 8, flags: DIFlagTypePassByValue, elements: !4, templateParams: !376, identifier: "_ZTSN11ap_int_baseILi35ELb1EE5RTypeILi1ELb0EEE")
!1109 = !DIDerivedType(tag: DW_TAG_typedef, name: "type", scope: !1110, file: !631, line: 103, baseType: !1113)
!1110 = distinct !DICompositeType(tag: DW_TAG_structure_type, name: "_ap_int_factory<36, true>", file: !631, line: 103, size: 8, flags: DIFlagTypePassByValue, elements: !4, templateParams: !1111, identifier: "_ZTS15_ap_int_factoryILi36ELb1EE")
!1111 = !{!1112, !382}
!1112 = !DITemplateValueParameter(name: "_AP_W2", type: !21, value: i32 36)
!1113 = distinct !DICompositeType(tag: DW_TAG_structure_type, name: "ap_int<36>", file: !627, line: 18, size: 64, flags: DIFlagTypePassByValue, elements: !1114, templateParams: !1467, identifier: "_ZTS6ap_intILi36EE")
!1114 = !{!1115, !1389, !1393, !1397, !1400, !1403, !1406, !1409, !1412, !1415, !1418, !1421, !1424, !1427, !1430, !1433, !1436, !1439, !1442, !1445, !1448, !1454, !1460, !1464}
!1115 = !DIDerivedType(tag: DW_TAG_inheritance, scope: !1113, baseType: !1116)
!1116 = distinct !DICompositeType(tag: DW_TAG_structure_type, name: "ap_int_base<36, true>", file: !631, line: 108, size: 64, flags: DIFlagTypePassByValue, elements: !1117, templateParams: !1387, identifier: "_ZTS11ap_int_baseILi36ELb1EE")
!1117 = !{!1118, !1132, !1133, !1134, !1139, !1143, !1146, !1149, !1152, !1155, !1158, !1161, !1164, !1167, !1170, !1173, !1176, !1179, !1182, !1185, !1188, !1191, !1194, !1199, !1203, !1208, !1209, !1213, !1216, !1219, !1222, !1225, !1228, !1231, !1234, !1237, !1240, !1243, !1246, !1249, !1252, !1256, !1259, !1262, !1265, !1268, !1271, !1274, !1275, !1278, !1281, !1284, !1287, !1290, !1293, !1296, !1299, !1303, !1304, !1305, !1306, !1307, !1310, !1311, !1314, !1317, !1318, !1321, !1322, !1323, !1324, !1325, !1326, !1327, !1330, !1331, !1332, !1338, !1339, !1342, !1352, !1353, !1354, !1358, !1361, !1364, !1367, !1368, !1369, !1373, !1374, !1375, !1376, !1377, !1378, !1379, !1380, !1381, !1382, !1383}
!1118 = !DIDerivedType(tag: DW_TAG_inheritance, scope: !1116, baseType: !1119)
!1119 = distinct !DICompositeType(tag: DW_TAG_structure_type, name: "ssdm_int<36, true>", file: !635, line: 509, size: 64, flags: DIFlagTypePassByValue, elements: !1120, templateParams: !1130, identifier: "_ZTS8ssdm_intILi36ELb1EE")
!1120 = !{!1121, !1123, !1127}
!1121 = !DIDerivedType(tag: DW_TAG_member, name: "V", scope: !1119, file: !635, line: 511, baseType: !1122, size: 36, align: 64)
!1122 = !DIBasicType(name: "int36", size: 36, encoding: DW_ATE_signed)
!1123 = !DISubprogram(name: "ssdm_int", scope: !1119, file: !635, line: 512, type: !1124, isLocal: false, isDefinition: false, scopeLine: 512, flags: DIFlagPrototyped, isOptimized: false)
!1124 = !DISubroutineType(types: !1125)
!1125 = !{null, !1126}
!1126 = !DIDerivedType(tag: DW_TAG_pointer_type, baseType: !1119, size: 64, flags: DIFlagArtificial | DIFlagObjectPointer)
!1127 = !DISubprogram(name: "ssdm_int", scope: !1119, file: !635, line: 513, type: !1128, isLocal: false, isDefinition: false, scopeLine: 513, flags: DIFlagPrototyped, isOptimized: false)
!1128 = !DISubroutineType(types: !1129)
!1129 = !{null, !1126, !1122}
!1130 = !{!1131, !402}
!1131 = !DITemplateValueParameter(name: "_AP_N", type: !21, value: i32 36)
!1132 = !DIDerivedType(tag: DW_TAG_member, name: "width", scope: !1116, file: !631, line: 130, baseType: !47, flags: DIFlagStaticMember, extraData: i32 36)
!1133 = !DIDerivedType(tag: DW_TAG_member, name: "sign_flag", scope: !1116, file: !631, line: 131, baseType: !49, flags: DIFlagStaticMember, extraData: i1 true)
!1134 = !DISubprogram(name: "countLeadingOnes", linkageName: "_ZNK11ap_int_baseILi36ELb1EE16countLeadingOnesEv", scope: !1116, file: !631, line: 110, type: !1135, isLocal: false, isDefinition: false, scopeLine: 110, flags: DIFlagPrivate | DIFlagPrototyped, isOptimized: false)
!1135 = !DISubroutineType(types: !1136)
!1136 = !{!21, !1137}
!1137 = !DIDerivedType(tag: DW_TAG_pointer_type, baseType: !1138, size: 64, flags: DIFlagArtificial | DIFlagObjectPointer)
!1138 = !DIDerivedType(tag: DW_TAG_const_type, baseType: !1116)
!1139 = !DISubprogram(name: "ap_int_base", scope: !1116, file: !631, line: 175, type: !1140, isLocal: false, isDefinition: false, scopeLine: 175, flags: DIFlagPrototyped, isOptimized: false)
!1140 = !DISubroutineType(types: !1141)
!1141 = !{null, !1142}
!1142 = !DIDerivedType(tag: DW_TAG_pointer_type, baseType: !1116, size: 64, flags: DIFlagArtificial | DIFlagObjectPointer)
!1143 = !DISubprogram(name: "ap_int_base", scope: !1116, file: !631, line: 208, type: !1144, isLocal: false, isDefinition: false, scopeLine: 208, flags: DIFlagPrototyped, isOptimized: false)
!1144 = !DISubroutineType(types: !1145)
!1145 = !{null, !1142, !49}
!1146 = !DISubprogram(name: "ap_int_base", scope: !1116, file: !631, line: 209, type: !1147, isLocal: false, isDefinition: false, scopeLine: 209, flags: DIFlagPrototyped, isOptimized: false)
!1147 = !DISubroutineType(types: !1148)
!1148 = !{null, !1142, !65}
!1149 = !DISubprogram(name: "ap_int_base", scope: !1116, file: !631, line: 210, type: !1150, isLocal: false, isDefinition: false, scopeLine: 210, flags: DIFlagPrototyped, isOptimized: false)
!1150 = !DISubroutineType(types: !1151)
!1151 = !{null, !1142, !70}
!1152 = !DISubprogram(name: "ap_int_base", scope: !1116, file: !631, line: 211, type: !1153, isLocal: false, isDefinition: false, scopeLine: 211, flags: DIFlagPrototyped, isOptimized: false)
!1153 = !DISubroutineType(types: !1154)
!1154 = !{null, !1142, !75}
!1155 = !DISubprogram(name: "ap_int_base", scope: !1116, file: !631, line: 212, type: !1156, isLocal: false, isDefinition: false, scopeLine: 212, flags: DIFlagPrototyped, isOptimized: false)
!1156 = !DISubroutineType(types: !1157)
!1157 = !{null, !1142, !80}
!1158 = !DISubprogram(name: "ap_int_base", scope: !1116, file: !631, line: 213, type: !1159, isLocal: false, isDefinition: false, scopeLine: 213, flags: DIFlagPrototyped, isOptimized: false)
!1159 = !DISubroutineType(types: !1160)
!1160 = !{null, !1142, !85}
!1161 = !DISubprogram(name: "ap_int_base", scope: !1116, file: !631, line: 214, type: !1162, isLocal: false, isDefinition: false, scopeLine: 214, flags: DIFlagPrototyped, isOptimized: false)
!1162 = !DISubroutineType(types: !1163)
!1163 = !{null, !1142, !47}
!1164 = !DISubprogram(name: "ap_int_base", scope: !1116, file: !631, line: 215, type: !1165, isLocal: false, isDefinition: false, scopeLine: 215, flags: DIFlagPrototyped, isOptimized: false)
!1165 = !DISubroutineType(types: !1166)
!1166 = !{null, !1142, !93}
!1167 = !DISubprogram(name: "ap_int_base", scope: !1116, file: !631, line: 216, type: !1168, isLocal: false, isDefinition: false, scopeLine: 216, flags: DIFlagPrototyped, isOptimized: false)
!1168 = !DISubroutineType(types: !1169)
!1169 = !{null, !1142, !97}
!1170 = !DISubprogram(name: "ap_int_base", scope: !1116, file: !631, line: 217, type: !1171, isLocal: false, isDefinition: false, scopeLine: 217, flags: DIFlagPrototyped, isOptimized: false)
!1171 = !DISubroutineType(types: !1172)
!1172 = !{null, !1142, !102}
!1173 = !DISubprogram(name: "ap_int_base", scope: !1116, file: !631, line: 218, type: !1174, isLocal: false, isDefinition: false, scopeLine: 218, flags: DIFlagPrototyped, isOptimized: false)
!1174 = !DISubroutineType(types: !1175)
!1175 = !{null, !1142, !692}
!1176 = !DISubprogram(name: "ap_int_base", scope: !1116, file: !631, line: 219, type: !1177, isLocal: false, isDefinition: false, scopeLine: 219, flags: DIFlagPrototyped, isOptimized: false)
!1177 = !DISubroutineType(types: !1178)
!1178 = !{null, !1142, !698}
!1179 = !DISubprogram(name: "ap_int_base", scope: !1116, file: !631, line: 224, type: !1180, isLocal: false, isDefinition: false, scopeLine: 224, flags: DIFlagPrototyped, isOptimized: false)
!1180 = !DISubroutineType(types: !1181)
!1181 = !{null, !1142, !703}
!1182 = !DISubprogram(name: "ap_int_base", scope: !1116, file: !631, line: 230, type: !1183, isLocal: false, isDefinition: false, scopeLine: 230, flags: DIFlagPrototyped, isOptimized: false)
!1183 = !DISubroutineType(types: !1184)
!1184 = !{null, !1142, !13}
!1185 = !DISubprogram(name: "ap_int_base", scope: !1116, file: !631, line: 289, type: !1186, isLocal: false, isDefinition: false, scopeLine: 289, flags: DIFlagPrototyped, isOptimized: false)
!1186 = !DISubroutineType(types: !1187)
!1187 = !{null, !1142, !128}
!1188 = !DISubprogram(name: "ap_int_base", scope: !1116, file: !631, line: 385, type: !1189, isLocal: false, isDefinition: false, scopeLine: 385, flags: DIFlagPrototyped, isOptimized: false)
!1189 = !DISubroutineType(types: !1190)
!1190 = !{null, !1142, !132}
!1191 = !DISubprogram(name: "ap_int_base", scope: !1116, file: !631, line: 391, type: !1192, isLocal: false, isDefinition: false, scopeLine: 391, flags: DIFlagPrototyped, isOptimized: false)
!1192 = !DISubroutineType(types: !1193)
!1193 = !{null, !1142, !132, !71}
!1194 = !DISubprogram(name: "read", linkageName: "_ZNV11ap_int_baseILi36ELb1EE4readEv", scope: !1116, file: !631, line: 413, type: !1195, isLocal: false, isDefinition: false, scopeLine: 413, flags: DIFlagPrototyped, isOptimized: false)
!1195 = !DISubroutineType(types: !1196)
!1196 = !{!1116, !1197}
!1197 = !DIDerivedType(tag: DW_TAG_pointer_type, baseType: !1198, size: 64, flags: DIFlagArtificial | DIFlagObjectPointer)
!1198 = !DIDerivedType(tag: DW_TAG_volatile_type, baseType: !1116)
!1199 = !DISubprogram(name: "write", linkageName: "_ZNV11ap_int_baseILi36ELb1EE5writeERKS0_", scope: !1116, file: !631, line: 420, type: !1200, isLocal: false, isDefinition: false, scopeLine: 420, flags: DIFlagPrototyped, isOptimized: false)
!1200 = !DISubroutineType(types: !1201)
!1201 = !{null, !1197, !1202}
!1202 = !DIDerivedType(tag: DW_TAG_reference_type, baseType: !1138, size: 64)
!1203 = !DISubprogram(name: "operator=", linkageName: "_ZNV11ap_int_baseILi36ELb1EEaSERVKS0_", scope: !1116, file: !631, line: 432, type: !1204, isLocal: false, isDefinition: false, scopeLine: 432, flags: DIFlagPrototyped, isOptimized: false)
!1204 = !DISubroutineType(types: !1205)
!1205 = !{null, !1197, !1206}
!1206 = !DIDerivedType(tag: DW_TAG_reference_type, baseType: !1207, size: 64)
!1207 = !DIDerivedType(tag: DW_TAG_const_type, baseType: !1198)
!1208 = !DISubprogram(name: "operator=", linkageName: "_ZNV11ap_int_baseILi36ELb1EEaSERKS0_", scope: !1116, file: !631, line: 442, type: !1200, isLocal: false, isDefinition: false, scopeLine: 442, flags: DIFlagPrototyped, isOptimized: false)
!1209 = !DISubprogram(name: "operator=", linkageName: "_ZN11ap_int_baseILi36ELb1EEaSERVKS0_", scope: !1116, file: !631, line: 459, type: !1210, isLocal: false, isDefinition: false, scopeLine: 459, flags: DIFlagPrototyped, isOptimized: false)
!1210 = !DISubroutineType(types: !1211)
!1211 = !{!1212, !1142, !1206}
!1212 = !DIDerivedType(tag: DW_TAG_reference_type, baseType: !1116, size: 64)
!1213 = !DISubprogram(name: "operator=", linkageName: "_ZN11ap_int_baseILi36ELb1EEaSERKS0_", scope: !1116, file: !631, line: 465, type: !1214, isLocal: false, isDefinition: false, scopeLine: 465, flags: DIFlagPrototyped, isOptimized: false)
!1214 = !DISubroutineType(types: !1215)
!1215 = !{!1212, !1142, !1202}
!1216 = !DISubprogram(name: "operator=", linkageName: "_ZN11ap_int_baseILi36ELb1EEaSEb", scope: !1116, file: !631, line: 479, type: !1217, isLocal: false, isDefinition: false, scopeLine: 479, flags: DIFlagPrototyped, isOptimized: false)
!1217 = !DISubroutineType(types: !1218)
!1218 = !{!1212, !1142, !45}
!1219 = !DISubprogram(name: "operator=", linkageName: "_ZN11ap_int_baseILi36ELb1EEaSEc", scope: !1116, file: !631, line: 480, type: !1220, isLocal: false, isDefinition: false, scopeLine: 480, flags: DIFlagPrototyped, isOptimized: false)
!1220 = !DISubroutineType(types: !1221)
!1221 = !{!1212, !1142, !66}
!1222 = !DISubprogram(name: "operator=", linkageName: "_ZN11ap_int_baseILi36ELb1EEaSEa", scope: !1116, file: !631, line: 481, type: !1223, isLocal: false, isDefinition: false, scopeLine: 481, flags: DIFlagPrototyped, isOptimized: false)
!1223 = !DISubroutineType(types: !1224)
!1224 = !{!1212, !1142, !71}
!1225 = !DISubprogram(name: "operator=", linkageName: "_ZN11ap_int_baseILi36ELb1EEaSEh", scope: !1116, file: !631, line: 482, type: !1226, isLocal: false, isDefinition: false, scopeLine: 482, flags: DIFlagPrototyped, isOptimized: false)
!1226 = !DISubroutineType(types: !1227)
!1227 = !{!1212, !1142, !76}
!1228 = !DISubprogram(name: "operator=", linkageName: "_ZN11ap_int_baseILi36ELb1EEaSEs", scope: !1116, file: !631, line: 483, type: !1229, isLocal: false, isDefinition: false, scopeLine: 483, flags: DIFlagPrototyped, isOptimized: false)
!1229 = !DISubroutineType(types: !1230)
!1230 = !{!1212, !1142, !81}
!1231 = !DISubprogram(name: "operator=", linkageName: "_ZN11ap_int_baseILi36ELb1EEaSEt", scope: !1116, file: !631, line: 484, type: !1232, isLocal: false, isDefinition: false, scopeLine: 484, flags: DIFlagPrototyped, isOptimized: false)
!1232 = !DISubroutineType(types: !1233)
!1233 = !{!1212, !1142, !86}
!1234 = !DISubprogram(name: "operator=", linkageName: "_ZN11ap_int_baseILi36ELb1EEaSEi", scope: !1116, file: !631, line: 485, type: !1235, isLocal: false, isDefinition: false, scopeLine: 485, flags: DIFlagPrototyped, isOptimized: false)
!1235 = !DISubroutineType(types: !1236)
!1236 = !{!1212, !1142, !21}
!1237 = !DISubprogram(name: "operator=", linkageName: "_ZN11ap_int_baseILi36ELb1EEaSEj", scope: !1116, file: !631, line: 486, type: !1238, isLocal: false, isDefinition: false, scopeLine: 486, flags: DIFlagPrototyped, isOptimized: false)
!1238 = !DISubroutineType(types: !1239)
!1239 = !{!1212, !1142, !34}
!1240 = !DISubprogram(name: "operator=", linkageName: "_ZN11ap_int_baseILi36ELb1EEaSEl", scope: !1116, file: !631, line: 487, type: !1241, isLocal: false, isDefinition: false, scopeLine: 487, flags: DIFlagPrototyped, isOptimized: false)
!1241 = !DISubroutineType(types: !1242)
!1242 = !{!1212, !1142, !98}
!1243 = !DISubprogram(name: "operator=", linkageName: "_ZN11ap_int_baseILi36ELb1EEaSEm", scope: !1116, file: !631, line: 488, type: !1244, isLocal: false, isDefinition: false, scopeLine: 488, flags: DIFlagPrototyped, isOptimized: false)
!1244 = !DISubroutineType(types: !1245)
!1245 = !{!1212, !1142, !103}
!1246 = !DISubprogram(name: "operator=", linkageName: "_ZN11ap_int_baseILi36ELb1EEaSEx", scope: !1116, file: !631, line: 489, type: !1247, isLocal: false, isDefinition: false, scopeLine: 489, flags: DIFlagPrototyped, isOptimized: false)
!1247 = !DISubroutineType(types: !1248)
!1248 = !{!1212, !1142, !693}
!1249 = !DISubprogram(name: "operator=", linkageName: "_ZN11ap_int_baseILi36ELb1EEaSEy", scope: !1116, file: !631, line: 490, type: !1250, isLocal: false, isDefinition: false, scopeLine: 490, flags: DIFlagPrototyped, isOptimized: false)
!1250 = !DISubroutineType(types: !1251)
!1251 = !{!1212, !1142, !699}
!1252 = !DISubprogram(name: "operator long long", linkageName: "_ZNK11ap_int_baseILi36ELb1EEcvxEv", scope: !1116, file: !631, line: 541, type: !1253, isLocal: false, isDefinition: false, scopeLine: 541, flags: DIFlagPrototyped, isOptimized: false)
!1253 = !DISubroutineType(types: !1254)
!1254 = !{!1255, !1137}
!1255 = !DIDerivedType(tag: DW_TAG_typedef, name: "RetType", scope: !1116, file: !631, line: 128, baseType: !778)
!1256 = !DISubprogram(name: "to_bool", linkageName: "_ZNK11ap_int_baseILi36ELb1EE7to_boolEv", scope: !1116, file: !631, line: 546, type: !1257, isLocal: false, isDefinition: false, scopeLine: 546, flags: DIFlagPrototyped, isOptimized: false)
!1257 = !DISubroutineType(types: !1258)
!1258 = !{!45, !1137}
!1259 = !DISubprogram(name: "to_char", linkageName: "_ZNK11ap_int_baseILi36ELb1EE7to_charEv", scope: !1116, file: !631, line: 547, type: !1260, isLocal: false, isDefinition: false, scopeLine: 547, flags: DIFlagPrototyped, isOptimized: false)
!1260 = !DISubroutineType(types: !1261)
!1261 = !{!66, !1137}
!1262 = !DISubprogram(name: "to_schar", linkageName: "_ZNK11ap_int_baseILi36ELb1EE8to_scharEv", scope: !1116, file: !631, line: 548, type: !1263, isLocal: false, isDefinition: false, scopeLine: 548, flags: DIFlagPrototyped, isOptimized: false)
!1263 = !DISubroutineType(types: !1264)
!1264 = !{!71, !1137}
!1265 = !DISubprogram(name: "to_uchar", linkageName: "_ZNK11ap_int_baseILi36ELb1EE8to_ucharEv", scope: !1116, file: !631, line: 549, type: !1266, isLocal: false, isDefinition: false, scopeLine: 549, flags: DIFlagPrototyped, isOptimized: false)
!1266 = !DISubroutineType(types: !1267)
!1267 = !{!76, !1137}
!1268 = !DISubprogram(name: "to_short", linkageName: "_ZNK11ap_int_baseILi36ELb1EE8to_shortEv", scope: !1116, file: !631, line: 550, type: !1269, isLocal: false, isDefinition: false, scopeLine: 550, flags: DIFlagPrototyped, isOptimized: false)
!1269 = !DISubroutineType(types: !1270)
!1270 = !{!81, !1137}
!1271 = !DISubprogram(name: "to_ushort", linkageName: "_ZNK11ap_int_baseILi36ELb1EE9to_ushortEv", scope: !1116, file: !631, line: 551, type: !1272, isLocal: false, isDefinition: false, scopeLine: 551, flags: DIFlagPrototyped, isOptimized: false)
!1272 = !DISubroutineType(types: !1273)
!1273 = !{!86, !1137}
!1274 = !DISubprogram(name: "to_int", linkageName: "_ZNK11ap_int_baseILi36ELb1EE6to_intEv", scope: !1116, file: !631, line: 552, type: !1135, isLocal: false, isDefinition: false, scopeLine: 552, flags: DIFlagPrototyped, isOptimized: false)
!1275 = !DISubprogram(name: "to_uint", linkageName: "_ZNK11ap_int_baseILi36ELb1EE7to_uintEv", scope: !1116, file: !631, line: 553, type: !1276, isLocal: false, isDefinition: false, scopeLine: 553, flags: DIFlagPrototyped, isOptimized: false)
!1276 = !DISubroutineType(types: !1277)
!1277 = !{!34, !1137}
!1278 = !DISubprogram(name: "to_long", linkageName: "_ZNK11ap_int_baseILi36ELb1EE7to_longEv", scope: !1116, file: !631, line: 554, type: !1279, isLocal: false, isDefinition: false, scopeLine: 554, flags: DIFlagPrototyped, isOptimized: false)
!1279 = !DISubroutineType(types: !1280)
!1280 = !{!98, !1137}
!1281 = !DISubprogram(name: "to_ulong", linkageName: "_ZNK11ap_int_baseILi36ELb1EE8to_ulongEv", scope: !1116, file: !631, line: 555, type: !1282, isLocal: false, isDefinition: false, scopeLine: 555, flags: DIFlagPrototyped, isOptimized: false)
!1282 = !DISubroutineType(types: !1283)
!1283 = !{!103, !1137}
!1284 = !DISubprogram(name: "to_int64", linkageName: "_ZNK11ap_int_baseILi36ELb1EE8to_int64Ev", scope: !1116, file: !631, line: 556, type: !1285, isLocal: false, isDefinition: false, scopeLine: 556, flags: DIFlagPrototyped, isOptimized: false)
!1285 = !DISubroutineType(types: !1286)
!1286 = !{!693, !1137}
!1287 = !DISubprogram(name: "to_uint64", linkageName: "_ZNK11ap_int_baseILi36ELb1EE9to_uint64Ev", scope: !1116, file: !631, line: 557, type: !1288, isLocal: false, isDefinition: false, scopeLine: 557, flags: DIFlagPrototyped, isOptimized: false)
!1288 = !DISubroutineType(types: !1289)
!1289 = !{!699, !1137}
!1290 = !DISubprogram(name: "to_half", linkageName: "_ZNK11ap_int_baseILi36ELb1EE7to_halfEv", scope: !1116, file: !631, line: 558, type: !1291, isLocal: false, isDefinition: false, scopeLine: 558, flags: DIFlagPrototyped, isOptimized: false)
!1291 = !DISubroutineType(types: !1292)
!1292 = !{!703, !1137}
!1293 = !DISubprogram(name: "to_float", linkageName: "_ZNK11ap_int_baseILi36ELb1EE8to_floatEv", scope: !1116, file: !631, line: 559, type: !1294, isLocal: false, isDefinition: false, scopeLine: 559, flags: DIFlagPrototyped, isOptimized: false)
!1294 = !DISubroutineType(types: !1295)
!1295 = !{!13, !1137}
!1296 = !DISubprogram(name: "to_double", linkageName: "_ZNK11ap_int_baseILi36ELb1EE9to_doubleEv", scope: !1116, file: !631, line: 560, type: !1297, isLocal: false, isDefinition: false, scopeLine: 560, flags: DIFlagPrototyped, isOptimized: false)
!1297 = !DISubroutineType(types: !1298)
!1298 = !{!128, !1137}
!1299 = !DISubprogram(name: "length", linkageName: "_ZNVK11ap_int_baseILi36ELb1EE6lengthEv", scope: !1116, file: !631, line: 584, type: !1300, isLocal: false, isDefinition: false, scopeLine: 584, flags: DIFlagPrototyped, isOptimized: false)
!1300 = !DISubroutineType(types: !1301)
!1301 = !{!21, !1302}
!1302 = !DIDerivedType(tag: DW_TAG_pointer_type, baseType: !1207, size: 64, flags: DIFlagArtificial | DIFlagObjectPointer)
!1303 = !DISubprogram(name: "length", linkageName: "_ZNK11ap_int_baseILi36ELb1EE6lengthEv", scope: !1116, file: !631, line: 585, type: !1135, isLocal: false, isDefinition: false, scopeLine: 585, flags: DIFlagPrototyped, isOptimized: false)
!1304 = !DISubprogram(name: "iszero", linkageName: "_ZNK11ap_int_baseILi36ELb1EE6iszeroEv", scope: !1116, file: !631, line: 588, type: !1257, isLocal: false, isDefinition: false, scopeLine: 588, flags: DIFlagPrototyped, isOptimized: false)
!1305 = !DISubprogram(name: "is_zero", linkageName: "_ZNK11ap_int_baseILi36ELb1EE7is_zeroEv", scope: !1116, file: !631, line: 591, type: !1257, isLocal: false, isDefinition: false, scopeLine: 591, flags: DIFlagPrototyped, isOptimized: false)
!1306 = !DISubprogram(name: "sign", linkageName: "_ZNK11ap_int_baseILi36ELb1EE4signEv", scope: !1116, file: !631, line: 594, type: !1257, isLocal: false, isDefinition: false, scopeLine: 594, flags: DIFlagPrototyped, isOptimized: false)
!1307 = !DISubprogram(name: "clear", linkageName: "_ZN11ap_int_baseILi36ELb1EE5clearEi", scope: !1116, file: !631, line: 603, type: !1308, isLocal: false, isDefinition: false, scopeLine: 603, flags: DIFlagPrototyped, isOptimized: false)
!1308 = !DISubroutineType(types: !1309)
!1309 = !{null, !1142, !21}
!1310 = !DISubprogram(name: "invert", linkageName: "_ZN11ap_int_baseILi36ELb1EE6invertEi", scope: !1116, file: !631, line: 609, type: !1308, isLocal: false, isDefinition: false, scopeLine: 609, flags: DIFlagPrototyped, isOptimized: false)
!1311 = !DISubprogram(name: "test", linkageName: "_ZNK11ap_int_baseILi36ELb1EE4testEi", scope: !1116, file: !631, line: 618, type: !1312, isLocal: false, isDefinition: false, scopeLine: 618, flags: DIFlagPrototyped, isOptimized: false)
!1312 = !DISubroutineType(types: !1313)
!1313 = !{!45, !1137, !21}
!1314 = !DISubprogram(name: "get", linkageName: "_ZN11ap_int_baseILi36ELb1EE3getEv", scope: !1116, file: !631, line: 624, type: !1315, isLocal: false, isDefinition: false, scopeLine: 624, flags: DIFlagPrototyped, isOptimized: false)
!1315 = !DISubroutineType(types: !1316)
!1316 = !{!1212, !1142}
!1317 = !DISubprogram(name: "set", linkageName: "_ZN11ap_int_baseILi36ELb1EE3setEi", scope: !1116, file: !631, line: 627, type: !1308, isLocal: false, isDefinition: false, scopeLine: 627, flags: DIFlagPrototyped, isOptimized: false)
!1318 = !DISubprogram(name: "set", linkageName: "_ZN11ap_int_baseILi36ELb1EE3setEib", scope: !1116, file: !631, line: 633, type: !1319, isLocal: false, isDefinition: false, scopeLine: 633, flags: DIFlagPrototyped, isOptimized: false)
!1319 = !DISubroutineType(types: !1320)
!1320 = !{null, !1142, !21, !45}
!1321 = !DISubprogram(name: "lrotate", linkageName: "_ZN11ap_int_baseILi36ELb1EE7lrotateEi", scope: !1116, file: !631, line: 640, type: !1235, isLocal: false, isDefinition: false, scopeLine: 640, flags: DIFlagPrototyped, isOptimized: false)
!1322 = !DISubprogram(name: "rrotate", linkageName: "_ZN11ap_int_baseILi36ELb1EE7rrotateEi", scope: !1116, file: !631, line: 655, type: !1235, isLocal: false, isDefinition: false, scopeLine: 655, flags: DIFlagPrototyped, isOptimized: false)
!1323 = !DISubprogram(name: "reverse", linkageName: "_ZN11ap_int_baseILi36ELb1EE7reverseEv", scope: !1116, file: !631, line: 670, type: !1315, isLocal: false, isDefinition: false, scopeLine: 670, flags: DIFlagPrototyped, isOptimized: false)
!1324 = !DISubprogram(name: "set_bit", linkageName: "_ZN11ap_int_baseILi36ELb1EE7set_bitEib", scope: !1116, file: !631, line: 676, type: !1319, isLocal: false, isDefinition: false, scopeLine: 676, flags: DIFlagPrototyped, isOptimized: false)
!1325 = !DISubprogram(name: "get_bit", linkageName: "_ZNK11ap_int_baseILi36ELb1EE7get_bitEi", scope: !1116, file: !631, line: 681, type: !1312, isLocal: false, isDefinition: false, scopeLine: 681, flags: DIFlagPrototyped, isOptimized: false)
!1326 = !DISubprogram(name: "b_not", linkageName: "_ZN11ap_int_baseILi36ELb1EE5b_notEv", scope: !1116, file: !631, line: 686, type: !1140, isLocal: false, isDefinition: false, scopeLine: 686, flags: DIFlagPrototyped, isOptimized: false)
!1327 = !DISubprogram(name: "checkOverflowCsim", linkageName: "_ZNK11ap_int_baseILi36ELb1EE17checkOverflowCsimEibb", scope: !1116, file: !631, line: 760, type: !1328, isLocal: false, isDefinition: false, scopeLine: 760, flags: DIFlagPrototyped, isOptimized: false)
!1328 = !DISubroutineType(types: !1329)
!1329 = !{!45, !1137, !21, !45, !45}
!1330 = !DISubprogram(name: "operator++", linkageName: "_ZN11ap_int_baseILi36ELb1EEppEv", scope: !1116, file: !631, line: 865, type: !1315, isLocal: false, isDefinition: false, scopeLine: 865, flags: DIFlagPrototyped, isOptimized: false)
!1331 = !DISubprogram(name: "operator--", linkageName: "_ZN11ap_int_baseILi36ELb1EEmmEv", scope: !1116, file: !631, line: 869, type: !1315, isLocal: false, isDefinition: false, scopeLine: 869, flags: DIFlagPrototyped, isOptimized: false)
!1332 = !DISubprogram(name: "operator++", linkageName: "_ZN11ap_int_baseILi36ELb1EEppEi", scope: !1116, file: !631, line: 877, type: !1333, isLocal: false, isDefinition: false, scopeLine: 877, flags: DIFlagPrototyped, isOptimized: false)
!1333 = !DISubroutineType(types: !1334)
!1334 = !{!1335, !1142, !21}
!1335 = !DIDerivedType(tag: DW_TAG_const_type, baseType: !1336)
!1336 = !DIDerivedType(tag: DW_TAG_typedef, name: "arg1", scope: !1337, file: !631, line: 167, baseType: !1109)
!1337 = distinct !DICompositeType(tag: DW_TAG_structure_type, name: "RType<36, true>", scope: !1116, file: !631, line: 134, size: 8, flags: DIFlagTypePassByValue, elements: !4, templateParams: !1111, identifier: "_ZTSN11ap_int_baseILi36ELb1EE5RTypeILi36ELb1EEE")
!1338 = !DISubprogram(name: "operator--", linkageName: "_ZN11ap_int_baseILi36ELb1EEmmEi", scope: !1116, file: !631, line: 882, type: !1333, isLocal: false, isDefinition: false, scopeLine: 882, flags: DIFlagPrototyped, isOptimized: false)
!1339 = !DISubprogram(name: "operator+", linkageName: "_ZNK11ap_int_baseILi36ELb1EEpsEv", scope: !1116, file: !631, line: 891, type: !1340, isLocal: false, isDefinition: false, scopeLine: 891, flags: DIFlagPrototyped, isOptimized: false)
!1340 = !DISubroutineType(types: !1341)
!1341 = !{!1336, !1137}
!1342 = !DISubprogram(name: "operator-", linkageName: "_ZNK11ap_int_baseILi36ELb1EEngEv", scope: !1116, file: !631, line: 894, type: !1343, isLocal: false, isDefinition: false, scopeLine: 894, flags: DIFlagPrototyped, isOptimized: false)
!1343 = !DISubroutineType(types: !1344)
!1344 = !{!1345, !1137}
!1345 = !DIDerivedType(tag: DW_TAG_typedef, name: "minus", scope: !1346, file: !631, line: 163, baseType: !1347)
!1346 = distinct !DICompositeType(tag: DW_TAG_structure_type, name: "RType<1, false>", scope: !1116, file: !631, line: 134, size: 8, flags: DIFlagTypePassByValue, elements: !4, templateParams: !376, identifier: "_ZTSN11ap_int_baseILi36ELb1EE5RTypeILi1ELb0EEE")
!1347 = !DIDerivedType(tag: DW_TAG_typedef, name: "type", scope: !1348, file: !631, line: 103, baseType: !1351)
!1348 = distinct !DICompositeType(tag: DW_TAG_structure_type, name: "_ap_int_factory<37, true>", file: !631, line: 103, size: 8, flags: DIFlagTypePassByValue, elements: !4, templateParams: !1349, identifier: "_ZTS15_ap_int_factoryILi37ELb1EE")
!1349 = !{!1350, !382}
!1350 = !DITemplateValueParameter(name: "_AP_W2", type: !21, value: i32 37)
!1351 = distinct !DICompositeType(tag: DW_TAG_structure_type, name: "ap_int<37>", file: !694, line: 137, flags: DIFlagFwdDecl, identifier: "_ZTS6ap_intILi37EE")
!1352 = !DISubprogram(name: "operator!", linkageName: "_ZNK11ap_int_baseILi36ELb1EEntEv", scope: !1116, file: !631, line: 901, type: !1257, isLocal: false, isDefinition: false, scopeLine: 901, flags: DIFlagPrototyped, isOptimized: false)
!1353 = !DISubprogram(name: "operator~", linkageName: "_ZNK11ap_int_baseILi36ELb1EEcoEv", scope: !1116, file: !631, line: 907, type: !1340, isLocal: false, isDefinition: false, scopeLine: 907, flags: DIFlagPrototyped, isOptimized: false)
!1354 = !DISubprogram(name: "range", linkageName: "_ZN11ap_int_baseILi36ELb1EE5rangeEii", scope: !1116, file: !631, line: 1045, type: !1355, isLocal: false, isDefinition: false, scopeLine: 1045, flags: DIFlagPrototyped, isOptimized: false)
!1355 = !DISubroutineType(types: !1356)
!1356 = !{!1357, !1142, !21, !21}
!1357 = distinct !DICompositeType(tag: DW_TAG_structure_type, name: "ap_range_ref<36, true>", file: !694, line: 143, flags: DIFlagFwdDecl, identifier: "_ZTS12ap_range_refILi36ELb1EE")
!1358 = !DISubprogram(name: "range", linkageName: "_ZNK11ap_int_baseILi36ELb1EE5rangeEii", scope: !1116, file: !631, line: 1052, type: !1359, isLocal: false, isDefinition: false, scopeLine: 1052, flags: DIFlagPrototyped, isOptimized: false)
!1359 = !DISubroutineType(types: !1360)
!1360 = !{!1357, !1137, !21, !21}
!1361 = !DISubprogram(name: "range", linkageName: "_ZN11ap_int_baseILi36ELb1EE5rangeEv", scope: !1116, file: !631, line: 1076, type: !1362, isLocal: false, isDefinition: false, scopeLine: 1076, flags: DIFlagPrototyped, isOptimized: false)
!1362 = !DISubroutineType(types: !1363)
!1363 = !{!1357, !1142}
!1364 = !DISubprogram(name: "range", linkageName: "_ZNK11ap_int_baseILi36ELb1EE5rangeEv", scope: !1116, file: !631, line: 1080, type: !1365, isLocal: false, isDefinition: false, scopeLine: 1080, flags: DIFlagPrototyped, isOptimized: false)
!1365 = !DISubroutineType(types: !1366)
!1366 = !{!1357, !1137}
!1367 = !DISubprogram(name: "operator()", linkageName: "_ZN11ap_int_baseILi36ELb1EEclEii", scope: !1116, file: !631, line: 1084, type: !1355, isLocal: false, isDefinition: false, scopeLine: 1084, flags: DIFlagPrototyped, isOptimized: false)
!1368 = !DISubprogram(name: "operator()", linkageName: "_ZNK11ap_int_baseILi36ELb1EEclEii", scope: !1116, file: !631, line: 1088, type: !1359, isLocal: false, isDefinition: false, scopeLine: 1088, flags: DIFlagPrototyped, isOptimized: false)
!1369 = !DISubprogram(name: "operator[]", linkageName: "_ZN11ap_int_baseILi36ELb1EEixEi", scope: !1116, file: !631, line: 1126, type: !1370, isLocal: false, isDefinition: false, scopeLine: 1126, flags: DIFlagPrototyped, isOptimized: false)
!1370 = !DISubroutineType(types: !1371)
!1371 = !{!1372, !1142, !21}
!1372 = distinct !DICompositeType(tag: DW_TAG_structure_type, name: "ap_bit_ref<36, true>", file: !694, line: 146, flags: DIFlagFwdDecl, identifier: "_ZTS10ap_bit_refILi36ELb1EE")
!1373 = !DISubprogram(name: "operator[]", linkageName: "_ZNK11ap_int_baseILi36ELb1EEixEi", scope: !1116, file: !631, line: 1142, type: !1312, isLocal: false, isDefinition: false, scopeLine: 1142, flags: DIFlagPrototyped, isOptimized: false)
!1374 = !DISubprogram(name: "bit", linkageName: "_ZN11ap_int_baseILi36ELb1EE3bitEi", scope: !1116, file: !631, line: 1155, type: !1370, isLocal: false, isDefinition: false, scopeLine: 1155, flags: DIFlagPrototyped, isOptimized: false)
!1375 = !DISubprogram(name: "bit", linkageName: "_ZNK11ap_int_baseILi36ELb1EE3bitEi", scope: !1116, file: !631, line: 1170, type: !1312, isLocal: false, isDefinition: false, scopeLine: 1170, flags: DIFlagPrototyped, isOptimized: false)
!1376 = !DISubprogram(name: "countLeadingZeros", linkageName: "_ZNK11ap_int_baseILi36ELb1EE17countLeadingZerosEv", scope: !1116, file: !631, line: 1193, type: !1135, isLocal: false, isDefinition: false, scopeLine: 1193, flags: DIFlagPrototyped, isOptimized: false)
!1377 = !DISubprogram(name: "and_reduce", linkageName: "_ZNK11ap_int_baseILi36ELb1EE10and_reduceEv", scope: !1116, file: !631, line: 1413, type: !1257, isLocal: false, isDefinition: false, scopeLine: 1413, flags: DIFlagPrototyped, isOptimized: false)
!1378 = !DISubprogram(name: "nand_reduce", linkageName: "_ZNK11ap_int_baseILi36ELb1EE11nand_reduceEv", scope: !1116, file: !631, line: 1414, type: !1257, isLocal: false, isDefinition: false, scopeLine: 1414, flags: DIFlagPrototyped, isOptimized: false)
!1379 = !DISubprogram(name: "or_reduce", linkageName: "_ZNK11ap_int_baseILi36ELb1EE9or_reduceEv", scope: !1116, file: !631, line: 1415, type: !1257, isLocal: false, isDefinition: false, scopeLine: 1415, flags: DIFlagPrototyped, isOptimized: false)
!1380 = !DISubprogram(name: "nor_reduce", linkageName: "_ZNK11ap_int_baseILi36ELb1EE10nor_reduceEv", scope: !1116, file: !631, line: 1416, type: !1257, isLocal: false, isDefinition: false, scopeLine: 1416, flags: DIFlagPrototyped, isOptimized: false)
!1381 = !DISubprogram(name: "xor_reduce", linkageName: "_ZNK11ap_int_baseILi36ELb1EE10xor_reduceEv", scope: !1116, file: !631, line: 1417, type: !1257, isLocal: false, isDefinition: false, scopeLine: 1417, flags: DIFlagPrototyped, isOptimized: false)
!1382 = !DISubprogram(name: "xnor_reduce", linkageName: "_ZNK11ap_int_baseILi36ELb1EE11xnor_reduceEv", scope: !1116, file: !631, line: 1418, type: !1257, isLocal: false, isDefinition: false, scopeLine: 1418, flags: DIFlagPrototyped, isOptimized: false)
!1383 = !DISubprogram(name: "to_string", linkageName: "_ZNK11ap_int_baseILi36ELb1EE9to_stringEab", scope: !1116, file: !631, line: 1433, type: !1384, isLocal: false, isDefinition: false, scopeLine: 1433, flags: DIFlagPrototyped, isOptimized: false)
!1384 = !DISubroutineType(types: !1385)
!1385 = !{!1386, !1137, !71, !45}
!1386 = !DIDerivedType(tag: DW_TAG_pointer_type, baseType: !66, size: 64)
!1387 = !{!1388, !402}
!1388 = !DITemplateValueParameter(name: "_AP_W", type: !21, value: i32 36)
!1389 = !DISubprogram(name: "ap_int", scope: !1113, file: !627, line: 21, type: !1390, isLocal: false, isDefinition: false, scopeLine: 21, flags: DIFlagPrototyped, isOptimized: false)
!1390 = !DISubroutineType(types: !1391)
!1391 = !{null, !1392}
!1392 = !DIDerivedType(tag: DW_TAG_pointer_type, baseType: !1113, size: 64, flags: DIFlagArtificial | DIFlagObjectPointer)
!1393 = !DISubprogram(name: "ap_int", scope: !1113, file: !627, line: 57, type: !1394, isLocal: false, isDefinition: false, scopeLine: 57, flags: DIFlagPrototyped, isOptimized: false)
!1394 = !DISubroutineType(types: !1395)
!1395 = !{null, !1392, !1396, !45}
!1396 = !DIBasicType(name: "uint36", size: 36, encoding: DW_ATE_unsigned)
!1397 = !DISubprogram(name: "ap_int", scope: !1113, file: !627, line: 127, type: !1398, isLocal: false, isDefinition: false, scopeLine: 127, flags: DIFlagPrototyped, isOptimized: false)
!1398 = !DISubroutineType(types: !1399)
!1399 = !{null, !1392, !45}
!1400 = !DISubprogram(name: "ap_int", scope: !1113, file: !627, line: 128, type: !1401, isLocal: false, isDefinition: false, scopeLine: 128, flags: DIFlagPrototyped, isOptimized: false)
!1401 = !DISubroutineType(types: !1402)
!1402 = !{null, !1392, !66}
!1403 = !DISubprogram(name: "ap_int", scope: !1113, file: !627, line: 129, type: !1404, isLocal: false, isDefinition: false, scopeLine: 129, flags: DIFlagPrototyped, isOptimized: false)
!1404 = !DISubroutineType(types: !1405)
!1405 = !{null, !1392, !71}
!1406 = !DISubprogram(name: "ap_int", scope: !1113, file: !627, line: 130, type: !1407, isLocal: false, isDefinition: false, scopeLine: 130, flags: DIFlagPrototyped, isOptimized: false)
!1407 = !DISubroutineType(types: !1408)
!1408 = !{null, !1392, !76}
!1409 = !DISubprogram(name: "ap_int", scope: !1113, file: !627, line: 131, type: !1410, isLocal: false, isDefinition: false, scopeLine: 131, flags: DIFlagPrototyped, isOptimized: false)
!1410 = !DISubroutineType(types: !1411)
!1411 = !{null, !1392, !81}
!1412 = !DISubprogram(name: "ap_int", scope: !1113, file: !627, line: 132, type: !1413, isLocal: false, isDefinition: false, scopeLine: 132, flags: DIFlagPrototyped, isOptimized: false)
!1413 = !DISubroutineType(types: !1414)
!1414 = !{null, !1392, !86}
!1415 = !DISubprogram(name: "ap_int", scope: !1113, file: !627, line: 133, type: !1416, isLocal: false, isDefinition: false, scopeLine: 133, flags: DIFlagPrototyped, isOptimized: false)
!1416 = !DISubroutineType(types: !1417)
!1417 = !{null, !1392, !21}
!1418 = !DISubprogram(name: "ap_int", scope: !1113, file: !627, line: 134, type: !1419, isLocal: false, isDefinition: false, scopeLine: 134, flags: DIFlagPrototyped, isOptimized: false)
!1419 = !DISubroutineType(types: !1420)
!1420 = !{null, !1392, !34}
!1421 = !DISubprogram(name: "ap_int", scope: !1113, file: !627, line: 135, type: !1422, isLocal: false, isDefinition: false, scopeLine: 135, flags: DIFlagPrototyped, isOptimized: false)
!1422 = !DISubroutineType(types: !1423)
!1423 = !{null, !1392, !98}
!1424 = !DISubprogram(name: "ap_int", scope: !1113, file: !627, line: 136, type: !1425, isLocal: false, isDefinition: false, scopeLine: 136, flags: DIFlagPrototyped, isOptimized: false)
!1425 = !DISubroutineType(types: !1426)
!1426 = !{null, !1392, !103}
!1427 = !DISubprogram(name: "ap_int", scope: !1113, file: !627, line: 137, type: !1428, isLocal: false, isDefinition: false, scopeLine: 137, flags: DIFlagPrototyped, isOptimized: false)
!1428 = !DISubroutineType(types: !1429)
!1429 = !{null, !1392, !693}
!1430 = !DISubprogram(name: "ap_int", scope: !1113, file: !627, line: 138, type: !1431, isLocal: false, isDefinition: false, scopeLine: 138, flags: DIFlagPrototyped, isOptimized: false)
!1431 = !DISubroutineType(types: !1432)
!1432 = !{null, !1392, !699}
!1433 = !DISubprogram(name: "ap_int", scope: !1113, file: !627, line: 140, type: !1434, isLocal: false, isDefinition: false, scopeLine: 140, flags: DIFlagPrototyped, isOptimized: false)
!1434 = !DISubroutineType(types: !1435)
!1435 = !{null, !1392, !128}
!1436 = !DISubprogram(name: "ap_int", scope: !1113, file: !627, line: 141, type: !1437, isLocal: false, isDefinition: false, scopeLine: 141, flags: DIFlagPrototyped, isOptimized: false)
!1437 = !DISubroutineType(types: !1438)
!1438 = !{null, !1392, !13}
!1439 = !DISubprogram(name: "ap_int", scope: !1113, file: !627, line: 142, type: !1440, isLocal: false, isDefinition: false, scopeLine: 142, flags: DIFlagPrototyped, isOptimized: false)
!1440 = !DISubroutineType(types: !1441)
!1441 = !{null, !1392, !703}
!1442 = !DISubprogram(name: "ap_int", scope: !1113, file: !627, line: 145, type: !1443, isLocal: false, isDefinition: false, scopeLine: 145, flags: DIFlagPrototyped, isOptimized: false)
!1443 = !DISubroutineType(types: !1444)
!1444 = !{null, !1392, !132}
!1445 = !DISubprogram(name: "ap_int", scope: !1113, file: !627, line: 147, type: !1446, isLocal: false, isDefinition: false, scopeLine: 147, flags: DIFlagPrototyped, isOptimized: false)
!1446 = !DISubroutineType(types: !1447)
!1447 = !{null, !1392, !132, !71}
!1448 = !DISubprogram(name: "operator=", linkageName: "_ZN6ap_intILi36EEaSERKS0_", scope: !1113, file: !627, line: 152, type: !1449, isLocal: false, isDefinition: false, scopeLine: 152, flags: DIFlagPrototyped, isOptimized: false)
!1449 = !DISubroutineType(types: !1450)
!1450 = !{!1451, !1392, !1452}
!1451 = !DIDerivedType(tag: DW_TAG_reference_type, baseType: !1113, size: 64)
!1452 = !DIDerivedType(tag: DW_TAG_reference_type, baseType: !1453, size: 64)
!1453 = !DIDerivedType(tag: DW_TAG_const_type, baseType: !1113)
!1454 = !DISubprogram(name: "operator=", linkageName: "_ZN6ap_intILi36EEaSERVKS0_", scope: !1113, file: !627, line: 161, type: !1455, isLocal: false, isDefinition: false, scopeLine: 161, flags: DIFlagPrototyped, isOptimized: false)
!1455 = !DISubroutineType(types: !1456)
!1456 = !{!1451, !1392, !1457}
!1457 = !DIDerivedType(tag: DW_TAG_reference_type, baseType: !1458, size: 64)
!1458 = !DIDerivedType(tag: DW_TAG_const_type, baseType: !1459)
!1459 = !DIDerivedType(tag: DW_TAG_volatile_type, baseType: !1113)
!1460 = !DISubprogram(name: "operator=", linkageName: "_ZNV6ap_intILi36EEaSERKS0_", scope: !1113, file: !627, line: 167, type: !1461, isLocal: false, isDefinition: false, scopeLine: 167, flags: DIFlagPrototyped, isOptimized: false)
!1461 = !DISubroutineType(types: !1462)
!1462 = !{null, !1463, !1452}
!1463 = !DIDerivedType(tag: DW_TAG_pointer_type, baseType: !1459, size: 64, flags: DIFlagArtificial | DIFlagObjectPointer)
!1464 = !DISubprogram(name: "operator=", linkageName: "_ZNV6ap_intILi36EEaSERVKS0_", scope: !1113, file: !627, line: 171, type: !1465, isLocal: false, isDefinition: false, scopeLine: 171, flags: DIFlagPrototyped, isOptimized: false)
!1465 = !DISubroutineType(types: !1466)
!1466 = !{null, !1463, !1457}
!1467 = !{!1388}
!1468 = !DISubprogram(name: "operator!", linkageName: "_ZNK11ap_int_baseILi35ELb1EEntEv", scope: !878, file: !631, line: 901, type: !1019, isLocal: false, isDefinition: false, scopeLine: 901, flags: DIFlagPrototyped, isOptimized: false)
!1469 = !DISubprogram(name: "operator~", linkageName: "_ZNK11ap_int_baseILi35ELb1EEcoEv", scope: !878, file: !631, line: 907, type: !1102, isLocal: false, isDefinition: false, scopeLine: 907, flags: DIFlagPrototyped, isOptimized: false)
!1470 = !DISubprogram(name: "range", linkageName: "_ZN11ap_int_baseILi35ELb1EE5rangeEii", scope: !878, file: !631, line: 1045, type: !1471, isLocal: false, isDefinition: false, scopeLine: 1045, flags: DIFlagPrototyped, isOptimized: false)
!1471 = !DISubroutineType(types: !1472)
!1472 = !{!1473, !904, !21, !21}
!1473 = distinct !DICompositeType(tag: DW_TAG_structure_type, name: "ap_range_ref<35, true>", file: !694, line: 143, flags: DIFlagFwdDecl, identifier: "_ZTS12ap_range_refILi35ELb1EE")
!1474 = !DISubprogram(name: "range", linkageName: "_ZNK11ap_int_baseILi35ELb1EE5rangeEii", scope: !878, file: !631, line: 1052, type: !1475, isLocal: false, isDefinition: false, scopeLine: 1052, flags: DIFlagPrototyped, isOptimized: false)
!1475 = !DISubroutineType(types: !1476)
!1476 = !{!1473, !899, !21, !21}
!1477 = !DISubprogram(name: "range", linkageName: "_ZN11ap_int_baseILi35ELb1EE5rangeEv", scope: !878, file: !631, line: 1076, type: !1478, isLocal: false, isDefinition: false, scopeLine: 1076, flags: DIFlagPrototyped, isOptimized: false)
!1478 = !DISubroutineType(types: !1479)
!1479 = !{!1473, !904}
!1480 = !DISubprogram(name: "range", linkageName: "_ZNK11ap_int_baseILi35ELb1EE5rangeEv", scope: !878, file: !631, line: 1080, type: !1481, isLocal: false, isDefinition: false, scopeLine: 1080, flags: DIFlagPrototyped, isOptimized: false)
!1481 = !DISubroutineType(types: !1482)
!1482 = !{!1473, !899}
!1483 = !DISubprogram(name: "operator()", linkageName: "_ZN11ap_int_baseILi35ELb1EEclEii", scope: !878, file: !631, line: 1084, type: !1471, isLocal: false, isDefinition: false, scopeLine: 1084, flags: DIFlagPrototyped, isOptimized: false)
!1484 = !DISubprogram(name: "operator()", linkageName: "_ZNK11ap_int_baseILi35ELb1EEclEii", scope: !878, file: !631, line: 1088, type: !1475, isLocal: false, isDefinition: false, scopeLine: 1088, flags: DIFlagPrototyped, isOptimized: false)
!1485 = !DISubprogram(name: "operator[]", linkageName: "_ZN11ap_int_baseILi35ELb1EEixEi", scope: !878, file: !631, line: 1126, type: !1486, isLocal: false, isDefinition: false, scopeLine: 1126, flags: DIFlagPrototyped, isOptimized: false)
!1486 = !DISubroutineType(types: !1487)
!1487 = !{!1488, !904, !21}
!1488 = distinct !DICompositeType(tag: DW_TAG_structure_type, name: "ap_bit_ref<35, true>", file: !694, line: 146, flags: DIFlagFwdDecl, identifier: "_ZTS10ap_bit_refILi35ELb1EE")
!1489 = !DISubprogram(name: "operator[]", linkageName: "_ZNK11ap_int_baseILi35ELb1EEixEi", scope: !878, file: !631, line: 1142, type: !1074, isLocal: false, isDefinition: false, scopeLine: 1142, flags: DIFlagPrototyped, isOptimized: false)
!1490 = !DISubprogram(name: "bit", linkageName: "_ZN11ap_int_baseILi35ELb1EE3bitEi", scope: !878, file: !631, line: 1155, type: !1486, isLocal: false, isDefinition: false, scopeLine: 1155, flags: DIFlagPrototyped, isOptimized: false)
!1491 = !DISubprogram(name: "bit", linkageName: "_ZNK11ap_int_baseILi35ELb1EE3bitEi", scope: !878, file: !631, line: 1170, type: !1074, isLocal: false, isDefinition: false, scopeLine: 1170, flags: DIFlagPrototyped, isOptimized: false)
!1492 = !DISubprogram(name: "countLeadingZeros", linkageName: "_ZNK11ap_int_baseILi35ELb1EE17countLeadingZerosEv", scope: !878, file: !631, line: 1193, type: !897, isLocal: false, isDefinition: false, scopeLine: 1193, flags: DIFlagPrototyped, isOptimized: false)
!1493 = !DISubprogram(name: "and_reduce", linkageName: "_ZNK11ap_int_baseILi35ELb1EE10and_reduceEv", scope: !878, file: !631, line: 1413, type: !1019, isLocal: false, isDefinition: false, scopeLine: 1413, flags: DIFlagPrototyped, isOptimized: false)
!1494 = !DISubprogram(name: "nand_reduce", linkageName: "_ZNK11ap_int_baseILi35ELb1EE11nand_reduceEv", scope: !878, file: !631, line: 1414, type: !1019, isLocal: false, isDefinition: false, scopeLine: 1414, flags: DIFlagPrototyped, isOptimized: false)
!1495 = !DISubprogram(name: "or_reduce", linkageName: "_ZNK11ap_int_baseILi35ELb1EE9or_reduceEv", scope: !878, file: !631, line: 1415, type: !1019, isLocal: false, isDefinition: false, scopeLine: 1415, flags: DIFlagPrototyped, isOptimized: false)
!1496 = !DISubprogram(name: "nor_reduce", linkageName: "_ZNK11ap_int_baseILi35ELb1EE10nor_reduceEv", scope: !878, file: !631, line: 1416, type: !1019, isLocal: false, isDefinition: false, scopeLine: 1416, flags: DIFlagPrototyped, isOptimized: false)
!1497 = !DISubprogram(name: "xor_reduce", linkageName: "_ZNK11ap_int_baseILi35ELb1EE10xor_reduceEv", scope: !878, file: !631, line: 1417, type: !1019, isLocal: false, isDefinition: false, scopeLine: 1417, flags: DIFlagPrototyped, isOptimized: false)
!1498 = !DISubprogram(name: "xnor_reduce", linkageName: "_ZNK11ap_int_baseILi35ELb1EE11xnor_reduceEv", scope: !878, file: !631, line: 1418, type: !1019, isLocal: false, isDefinition: false, scopeLine: 1418, flags: DIFlagPrototyped, isOptimized: false)
!1499 = !DISubprogram(name: "to_string", linkageName: "_ZNK11ap_int_baseILi35ELb1EE9to_stringEab", scope: !878, file: !631, line: 1433, type: !1500, isLocal: false, isDefinition: false, scopeLine: 1433, flags: DIFlagPrototyped, isOptimized: false)
!1500 = !DISubroutineType(types: !1501)
!1501 = !{!1386, !899, !71, !45}
!1502 = !{!1503, !402}
!1503 = !DITemplateValueParameter(name: "_AP_W", type: !21, value: i32 35)
!1504 = !DISubprogram(name: "ap_int", scope: !875, file: !627, line: 21, type: !1505, isLocal: false, isDefinition: false, scopeLine: 21, flags: DIFlagPrototyped, isOptimized: false)
!1505 = !DISubroutineType(types: !1506)
!1506 = !{null, !1507}
!1507 = !DIDerivedType(tag: DW_TAG_pointer_type, baseType: !875, size: 64, flags: DIFlagArtificial | DIFlagObjectPointer)
!1508 = !DISubprogram(name: "ap_int", scope: !875, file: !627, line: 57, type: !1509, isLocal: false, isDefinition: false, scopeLine: 57, flags: DIFlagPrototyped, isOptimized: false)
!1509 = !DISubroutineType(types: !1510)
!1510 = !{null, !1507, !1511, !45}
!1511 = !DIBasicType(name: "uint35", size: 35, encoding: DW_ATE_unsigned)
!1512 = !DISubprogram(name: "ap_int", scope: !875, file: !627, line: 127, type: !1513, isLocal: false, isDefinition: false, scopeLine: 127, flags: DIFlagPrototyped, isOptimized: false)
!1513 = !DISubroutineType(types: !1514)
!1514 = !{null, !1507, !45}
!1515 = !DISubprogram(name: "ap_int", scope: !875, file: !627, line: 128, type: !1516, isLocal: false, isDefinition: false, scopeLine: 128, flags: DIFlagPrototyped, isOptimized: false)
!1516 = !DISubroutineType(types: !1517)
!1517 = !{null, !1507, !66}
!1518 = !DISubprogram(name: "ap_int", scope: !875, file: !627, line: 129, type: !1519, isLocal: false, isDefinition: false, scopeLine: 129, flags: DIFlagPrototyped, isOptimized: false)
!1519 = !DISubroutineType(types: !1520)
!1520 = !{null, !1507, !71}
!1521 = !DISubprogram(name: "ap_int", scope: !875, file: !627, line: 130, type: !1522, isLocal: false, isDefinition: false, scopeLine: 130, flags: DIFlagPrototyped, isOptimized: false)
!1522 = !DISubroutineType(types: !1523)
!1523 = !{null, !1507, !76}
!1524 = !DISubprogram(name: "ap_int", scope: !875, file: !627, line: 131, type: !1525, isLocal: false, isDefinition: false, scopeLine: 131, flags: DIFlagPrototyped, isOptimized: false)
!1525 = !DISubroutineType(types: !1526)
!1526 = !{null, !1507, !81}
!1527 = !DISubprogram(name: "ap_int", scope: !875, file: !627, line: 132, type: !1528, isLocal: false, isDefinition: false, scopeLine: 132, flags: DIFlagPrototyped, isOptimized: false)
!1528 = !DISubroutineType(types: !1529)
!1529 = !{null, !1507, !86}
!1530 = !DISubprogram(name: "ap_int", scope: !875, file: !627, line: 133, type: !1531, isLocal: false, isDefinition: false, scopeLine: 133, flags: DIFlagPrototyped, isOptimized: false)
!1531 = !DISubroutineType(types: !1532)
!1532 = !{null, !1507, !21}
!1533 = !DISubprogram(name: "ap_int", scope: !875, file: !627, line: 134, type: !1534, isLocal: false, isDefinition: false, scopeLine: 134, flags: DIFlagPrototyped, isOptimized: false)
!1534 = !DISubroutineType(types: !1535)
!1535 = !{null, !1507, !34}
!1536 = !DISubprogram(name: "ap_int", scope: !875, file: !627, line: 135, type: !1537, isLocal: false, isDefinition: false, scopeLine: 135, flags: DIFlagPrototyped, isOptimized: false)
!1537 = !DISubroutineType(types: !1538)
!1538 = !{null, !1507, !98}
!1539 = !DISubprogram(name: "ap_int", scope: !875, file: !627, line: 136, type: !1540, isLocal: false, isDefinition: false, scopeLine: 136, flags: DIFlagPrototyped, isOptimized: false)
!1540 = !DISubroutineType(types: !1541)
!1541 = !{null, !1507, !103}
!1542 = !DISubprogram(name: "ap_int", scope: !875, file: !627, line: 137, type: !1543, isLocal: false, isDefinition: false, scopeLine: 137, flags: DIFlagPrototyped, isOptimized: false)
!1543 = !DISubroutineType(types: !1544)
!1544 = !{null, !1507, !693}
!1545 = !DISubprogram(name: "ap_int", scope: !875, file: !627, line: 138, type: !1546, isLocal: false, isDefinition: false, scopeLine: 138, flags: DIFlagPrototyped, isOptimized: false)
!1546 = !DISubroutineType(types: !1547)
!1547 = !{null, !1507, !699}
!1548 = !DISubprogram(name: "ap_int", scope: !875, file: !627, line: 140, type: !1549, isLocal: false, isDefinition: false, scopeLine: 140, flags: DIFlagPrototyped, isOptimized: false)
!1549 = !DISubroutineType(types: !1550)
!1550 = !{null, !1507, !128}
!1551 = !DISubprogram(name: "ap_int", scope: !875, file: !627, line: 141, type: !1552, isLocal: false, isDefinition: false, scopeLine: 141, flags: DIFlagPrototyped, isOptimized: false)
!1552 = !DISubroutineType(types: !1553)
!1553 = !{null, !1507, !13}
!1554 = !DISubprogram(name: "ap_int", scope: !875, file: !627, line: 142, type: !1555, isLocal: false, isDefinition: false, scopeLine: 142, flags: DIFlagPrototyped, isOptimized: false)
!1555 = !DISubroutineType(types: !1556)
!1556 = !{null, !1507, !703}
!1557 = !DISubprogram(name: "ap_int", scope: !875, file: !627, line: 145, type: !1558, isLocal: false, isDefinition: false, scopeLine: 145, flags: DIFlagPrototyped, isOptimized: false)
!1558 = !DISubroutineType(types: !1559)
!1559 = !{null, !1507, !132}
!1560 = !DISubprogram(name: "ap_int", scope: !875, file: !627, line: 147, type: !1561, isLocal: false, isDefinition: false, scopeLine: 147, flags: DIFlagPrototyped, isOptimized: false)
!1561 = !DISubroutineType(types: !1562)
!1562 = !{null, !1507, !132, !71}
!1563 = !DISubprogram(name: "operator=", linkageName: "_ZN6ap_intILi35EEaSERKS0_", scope: !875, file: !627, line: 152, type: !1564, isLocal: false, isDefinition: false, scopeLine: 152, flags: DIFlagPrototyped, isOptimized: false)
!1564 = !DISubroutineType(types: !1565)
!1565 = !{!1566, !1507, !1567}
!1566 = !DIDerivedType(tag: DW_TAG_reference_type, baseType: !875, size: 64)
!1567 = !DIDerivedType(tag: DW_TAG_reference_type, baseType: !1568, size: 64)
!1568 = !DIDerivedType(tag: DW_TAG_const_type, baseType: !875)
!1569 = !DISubprogram(name: "operator=", linkageName: "_ZN6ap_intILi35EEaSERVKS0_", scope: !875, file: !627, line: 161, type: !1570, isLocal: false, isDefinition: false, scopeLine: 161, flags: DIFlagPrototyped, isOptimized: false)
!1570 = !DISubroutineType(types: !1571)
!1571 = !{!1566, !1507, !1572}
!1572 = !DIDerivedType(tag: DW_TAG_reference_type, baseType: !1573, size: 64)
!1573 = !DIDerivedType(tag: DW_TAG_const_type, baseType: !1574)
!1574 = !DIDerivedType(tag: DW_TAG_volatile_type, baseType: !875)
!1575 = !DISubprogram(name: "operator=", linkageName: "_ZNV6ap_intILi35EEaSERKS0_", scope: !875, file: !627, line: 167, type: !1576, isLocal: false, isDefinition: false, scopeLine: 167, flags: DIFlagPrototyped, isOptimized: false)
!1576 = !DISubroutineType(types: !1577)
!1577 = !{null, !1578, !1567}
!1578 = !DIDerivedType(tag: DW_TAG_pointer_type, baseType: !1574, size: 64, flags: DIFlagArtificial | DIFlagObjectPointer)
!1579 = !DISubprogram(name: "operator=", linkageName: "_ZNV6ap_intILi35EEaSERVKS0_", scope: !875, file: !627, line: 171, type: !1580, isLocal: false, isDefinition: false, scopeLine: 171, flags: DIFlagPrototyped, isOptimized: false)
!1580 = !DISubroutineType(types: !1581)
!1581 = !{null, !1578, !1572}
!1582 = !{!1503}
!1583 = !DISubprogram(name: "operator!", linkageName: "_ZNK11ap_int_baseILi34ELb1EEntEv", scope: !630, file: !631, line: 901, type: !780, isLocal: false, isDefinition: false, scopeLine: 901, flags: DIFlagPrototyped, isOptimized: false)
!1584 = !DISubprogram(name: "operator~", linkageName: "_ZNK11ap_int_baseILi34ELb1EEcoEv", scope: !630, file: !631, line: 907, type: !864, isLocal: false, isDefinition: false, scopeLine: 907, flags: DIFlagPrototyped, isOptimized: false)
!1585 = !DISubprogram(name: "range", linkageName: "_ZN11ap_int_baseILi34ELb1EE5rangeEii", scope: !630, file: !631, line: 1045, type: !1586, isLocal: false, isDefinition: false, scopeLine: 1045, flags: DIFlagPrototyped, isOptimized: false)
!1586 = !DISubroutineType(types: !1587)
!1587 = !{!1588, !658, !21, !21}
!1588 = distinct !DICompositeType(tag: DW_TAG_structure_type, name: "ap_range_ref<34, true>", file: !694, line: 143, flags: DIFlagFwdDecl, identifier: "_ZTS12ap_range_refILi34ELb1EE")
!1589 = !DISubprogram(name: "range", linkageName: "_ZNK11ap_int_baseILi34ELb1EE5rangeEii", scope: !630, file: !631, line: 1052, type: !1590, isLocal: false, isDefinition: false, scopeLine: 1052, flags: DIFlagPrototyped, isOptimized: false)
!1590 = !DISubroutineType(types: !1591)
!1591 = !{!1588, !653, !21, !21}
!1592 = !DISubprogram(name: "range", linkageName: "_ZN11ap_int_baseILi34ELb1EE5rangeEv", scope: !630, file: !631, line: 1076, type: !1593, isLocal: false, isDefinition: false, scopeLine: 1076, flags: DIFlagPrototyped, isOptimized: false)
!1593 = !DISubroutineType(types: !1594)
!1594 = !{!1588, !658}
!1595 = !DISubprogram(name: "range", linkageName: "_ZNK11ap_int_baseILi34ELb1EE5rangeEv", scope: !630, file: !631, line: 1080, type: !1596, isLocal: false, isDefinition: false, scopeLine: 1080, flags: DIFlagPrototyped, isOptimized: false)
!1596 = !DISubroutineType(types: !1597)
!1597 = !{!1588, !653}
!1598 = !DISubprogram(name: "operator()", linkageName: "_ZN11ap_int_baseILi34ELb1EEclEii", scope: !630, file: !631, line: 1084, type: !1586, isLocal: false, isDefinition: false, scopeLine: 1084, flags: DIFlagPrototyped, isOptimized: false)
!1599 = !DISubprogram(name: "operator()", linkageName: "_ZNK11ap_int_baseILi34ELb1EEclEii", scope: !630, file: !631, line: 1088, type: !1590, isLocal: false, isDefinition: false, scopeLine: 1088, flags: DIFlagPrototyped, isOptimized: false)
!1600 = !DISubprogram(name: "operator[]", linkageName: "_ZN11ap_int_baseILi34ELb1EEixEi", scope: !630, file: !631, line: 1126, type: !1601, isLocal: false, isDefinition: false, scopeLine: 1126, flags: DIFlagPrototyped, isOptimized: false)
!1601 = !DISubroutineType(types: !1602)
!1602 = !{!1603, !658, !21}
!1603 = distinct !DICompositeType(tag: DW_TAG_structure_type, name: "ap_bit_ref<34, true>", file: !694, line: 146, flags: DIFlagFwdDecl, identifier: "_ZTS10ap_bit_refILi34ELb1EE")
!1604 = !DISubprogram(name: "operator[]", linkageName: "_ZNK11ap_int_baseILi34ELb1EEixEi", scope: !630, file: !631, line: 1142, type: !835, isLocal: false, isDefinition: false, scopeLine: 1142, flags: DIFlagPrototyped, isOptimized: false)
!1605 = !DISubprogram(name: "bit", linkageName: "_ZN11ap_int_baseILi34ELb1EE3bitEi", scope: !630, file: !631, line: 1155, type: !1601, isLocal: false, isDefinition: false, scopeLine: 1155, flags: DIFlagPrototyped, isOptimized: false)
!1606 = !DISubprogram(name: "bit", linkageName: "_ZNK11ap_int_baseILi34ELb1EE3bitEi", scope: !630, file: !631, line: 1170, type: !835, isLocal: false, isDefinition: false, scopeLine: 1170, flags: DIFlagPrototyped, isOptimized: false)
!1607 = !DISubprogram(name: "countLeadingZeros", linkageName: "_ZNK11ap_int_baseILi34ELb1EE17countLeadingZerosEv", scope: !630, file: !631, line: 1193, type: !651, isLocal: false, isDefinition: false, scopeLine: 1193, flags: DIFlagPrototyped, isOptimized: false)
!1608 = !DISubprogram(name: "and_reduce", linkageName: "_ZNK11ap_int_baseILi34ELb1EE10and_reduceEv", scope: !630, file: !631, line: 1413, type: !780, isLocal: false, isDefinition: false, scopeLine: 1413, flags: DIFlagPrototyped, isOptimized: false)
!1609 = !DISubprogram(name: "nand_reduce", linkageName: "_ZNK11ap_int_baseILi34ELb1EE11nand_reduceEv", scope: !630, file: !631, line: 1414, type: !780, isLocal: false, isDefinition: false, scopeLine: 1414, flags: DIFlagPrototyped, isOptimized: false)
!1610 = !DISubprogram(name: "or_reduce", linkageName: "_ZNK11ap_int_baseILi34ELb1EE9or_reduceEv", scope: !630, file: !631, line: 1415, type: !780, isLocal: false, isDefinition: false, scopeLine: 1415, flags: DIFlagPrototyped, isOptimized: false)
!1611 = !DISubprogram(name: "nor_reduce", linkageName: "_ZNK11ap_int_baseILi34ELb1EE10nor_reduceEv", scope: !630, file: !631, line: 1416, type: !780, isLocal: false, isDefinition: false, scopeLine: 1416, flags: DIFlagPrototyped, isOptimized: false)
!1612 = !DISubprogram(name: "xor_reduce", linkageName: "_ZNK11ap_int_baseILi34ELb1EE10xor_reduceEv", scope: !630, file: !631, line: 1417, type: !780, isLocal: false, isDefinition: false, scopeLine: 1417, flags: DIFlagPrototyped, isOptimized: false)
!1613 = !DISubprogram(name: "xnor_reduce", linkageName: "_ZNK11ap_int_baseILi34ELb1EE11xnor_reduceEv", scope: !630, file: !631, line: 1418, type: !780, isLocal: false, isDefinition: false, scopeLine: 1418, flags: DIFlagPrototyped, isOptimized: false)
!1614 = !DISubprogram(name: "to_string", linkageName: "_ZNK11ap_int_baseILi34ELb1EE9to_stringEab", scope: !630, file: !631, line: 1433, type: !1615, isLocal: false, isDefinition: false, scopeLine: 1433, flags: DIFlagPrototyped, isOptimized: false)
!1615 = !DISubroutineType(types: !1616)
!1616 = !{!1386, !653, !71, !45}
!1617 = !{!1618, !402}
!1618 = !DITemplateValueParameter(name: "_AP_W", type: !21, value: i32 34)
!1619 = !DISubprogram(name: "ap_int", scope: !626, file: !627, line: 21, type: !1620, isLocal: false, isDefinition: false, scopeLine: 21, flags: DIFlagPrototyped, isOptimized: false)
!1620 = !DISubroutineType(types: !1621)
!1621 = !{null, !1622}
!1622 = !DIDerivedType(tag: DW_TAG_pointer_type, baseType: !626, size: 64, flags: DIFlagArtificial | DIFlagObjectPointer)
!1623 = !DISubprogram(name: "ap_int", scope: !626, file: !627, line: 57, type: !1624, isLocal: false, isDefinition: false, scopeLine: 57, flags: DIFlagPrototyped, isOptimized: false)
!1624 = !DISubroutineType(types: !1625)
!1625 = !{null, !1622, !1626, !45}
!1626 = !DIBasicType(name: "uint34", size: 34, encoding: DW_ATE_unsigned)
!1627 = !DISubprogram(name: "ap_int", scope: !626, file: !627, line: 127, type: !1628, isLocal: false, isDefinition: false, scopeLine: 127, flags: DIFlagPrototyped, isOptimized: false)
!1628 = !DISubroutineType(types: !1629)
!1629 = !{null, !1622, !45}
!1630 = !DISubprogram(name: "ap_int", scope: !626, file: !627, line: 128, type: !1631, isLocal: false, isDefinition: false, scopeLine: 128, flags: DIFlagPrototyped, isOptimized: false)
!1631 = !DISubroutineType(types: !1632)
!1632 = !{null, !1622, !66}
!1633 = !DISubprogram(name: "ap_int", scope: !626, file: !627, line: 129, type: !1634, isLocal: false, isDefinition: false, scopeLine: 129, flags: DIFlagPrototyped, isOptimized: false)
!1634 = !DISubroutineType(types: !1635)
!1635 = !{null, !1622, !71}
!1636 = !DISubprogram(name: "ap_int", scope: !626, file: !627, line: 130, type: !1637, isLocal: false, isDefinition: false, scopeLine: 130, flags: DIFlagPrototyped, isOptimized: false)
!1637 = !DISubroutineType(types: !1638)
!1638 = !{null, !1622, !76}
!1639 = !DISubprogram(name: "ap_int", scope: !626, file: !627, line: 131, type: !1640, isLocal: false, isDefinition: false, scopeLine: 131, flags: DIFlagPrototyped, isOptimized: false)
!1640 = !DISubroutineType(types: !1641)
!1641 = !{null, !1622, !81}
!1642 = !DISubprogram(name: "ap_int", scope: !626, file: !627, line: 132, type: !1643, isLocal: false, isDefinition: false, scopeLine: 132, flags: DIFlagPrototyped, isOptimized: false)
!1643 = !DISubroutineType(types: !1644)
!1644 = !{null, !1622, !86}
!1645 = !DISubprogram(name: "ap_int", scope: !626, file: !627, line: 133, type: !1646, isLocal: false, isDefinition: false, scopeLine: 133, flags: DIFlagPrototyped, isOptimized: false)
!1646 = !DISubroutineType(types: !1647)
!1647 = !{null, !1622, !21}
!1648 = !DISubprogram(name: "ap_int", scope: !626, file: !627, line: 134, type: !1649, isLocal: false, isDefinition: false, scopeLine: 134, flags: DIFlagPrototyped, isOptimized: false)
!1649 = !DISubroutineType(types: !1650)
!1650 = !{null, !1622, !34}
!1651 = !DISubprogram(name: "ap_int", scope: !626, file: !627, line: 135, type: !1652, isLocal: false, isDefinition: false, scopeLine: 135, flags: DIFlagPrototyped, isOptimized: false)
!1652 = !DISubroutineType(types: !1653)
!1653 = !{null, !1622, !98}
!1654 = !DISubprogram(name: "ap_int", scope: !626, file: !627, line: 136, type: !1655, isLocal: false, isDefinition: false, scopeLine: 136, flags: DIFlagPrototyped, isOptimized: false)
!1655 = !DISubroutineType(types: !1656)
!1656 = !{null, !1622, !103}
!1657 = !DISubprogram(name: "ap_int", scope: !626, file: !627, line: 137, type: !1658, isLocal: false, isDefinition: false, scopeLine: 137, flags: DIFlagPrototyped, isOptimized: false)
!1658 = !DISubroutineType(types: !1659)
!1659 = !{null, !1622, !693}
!1660 = !DISubprogram(name: "ap_int", scope: !626, file: !627, line: 138, type: !1661, isLocal: false, isDefinition: false, scopeLine: 138, flags: DIFlagPrototyped, isOptimized: false)
!1661 = !DISubroutineType(types: !1662)
!1662 = !{null, !1622, !699}
!1663 = !DISubprogram(name: "ap_int", scope: !626, file: !627, line: 140, type: !1664, isLocal: false, isDefinition: false, scopeLine: 140, flags: DIFlagPrototyped, isOptimized: false)
!1664 = !DISubroutineType(types: !1665)
!1665 = !{null, !1622, !128}
!1666 = !DISubprogram(name: "ap_int", scope: !626, file: !627, line: 141, type: !1667, isLocal: false, isDefinition: false, scopeLine: 141, flags: DIFlagPrototyped, isOptimized: false)
!1667 = !DISubroutineType(types: !1668)
!1668 = !{null, !1622, !13}
!1669 = !DISubprogram(name: "ap_int", scope: !626, file: !627, line: 142, type: !1670, isLocal: false, isDefinition: false, scopeLine: 142, flags: DIFlagPrototyped, isOptimized: false)
!1670 = !DISubroutineType(types: !1671)
!1671 = !{null, !1622, !703}
!1672 = !DISubprogram(name: "ap_int", scope: !626, file: !627, line: 145, type: !1673, isLocal: false, isDefinition: false, scopeLine: 145, flags: DIFlagPrototyped, isOptimized: false)
!1673 = !DISubroutineType(types: !1674)
!1674 = !{null, !1622, !132}
!1675 = !DISubprogram(name: "ap_int", scope: !626, file: !627, line: 147, type: !1676, isLocal: false, isDefinition: false, scopeLine: 147, flags: DIFlagPrototyped, isOptimized: false)
!1676 = !DISubroutineType(types: !1677)
!1677 = !{null, !1622, !132, !71}
!1678 = !DISubprogram(name: "operator=", linkageName: "_ZN6ap_intILi34EEaSERKS0_", scope: !626, file: !627, line: 152, type: !1679, isLocal: false, isDefinition: false, scopeLine: 152, flags: DIFlagPrototyped, isOptimized: false)
!1679 = !DISubroutineType(types: !1680)
!1680 = !{!1681, !1622, !1682}
!1681 = !DIDerivedType(tag: DW_TAG_reference_type, baseType: !626, size: 64)
!1682 = !DIDerivedType(tag: DW_TAG_reference_type, baseType: !1683, size: 64)
!1683 = !DIDerivedType(tag: DW_TAG_const_type, baseType: !626)
!1684 = !DISubprogram(name: "operator=", linkageName: "_ZN6ap_intILi34EEaSERVKS0_", scope: !626, file: !627, line: 161, type: !1685, isLocal: false, isDefinition: false, scopeLine: 161, flags: DIFlagPrototyped, isOptimized: false)
!1685 = !DISubroutineType(types: !1686)
!1686 = !{!1681, !1622, !1687}
!1687 = !DIDerivedType(tag: DW_TAG_reference_type, baseType: !1688, size: 64)
!1688 = !DIDerivedType(tag: DW_TAG_const_type, baseType: !1689)
!1689 = !DIDerivedType(tag: DW_TAG_volatile_type, baseType: !626)
!1690 = !DISubprogram(name: "operator=", linkageName: "_ZNV6ap_intILi34EEaSERKS0_", scope: !626, file: !627, line: 167, type: !1691, isLocal: false, isDefinition: false, scopeLine: 167, flags: DIFlagPrototyped, isOptimized: false)
!1691 = !DISubroutineType(types: !1692)
!1692 = !{null, !1693, !1682}
!1693 = !DIDerivedType(tag: DW_TAG_pointer_type, baseType: !1689, size: 64, flags: DIFlagArtificial | DIFlagObjectPointer)
!1694 = !DISubprogram(name: "operator=", linkageName: "_ZNV6ap_intILi34EEaSERVKS0_", scope: !626, file: !627, line: 171, type: !1695, isLocal: false, isDefinition: false, scopeLine: 171, flags: DIFlagPrototyped, isOptimized: false)
!1695 = !DISubroutineType(types: !1696)
!1696 = !{null, !1693, !1687}
!1697 = !{!1618}
!1698 = !DISubprogram(name: "operator!", linkageName: "_ZNK11ap_int_baseILi33ELb1EEntEv", scope: !386, file: !26, line: 947, type: !532, isLocal: false, isDefinition: false, scopeLine: 947, flags: DIFlagPrototyped, isOptimized: false)
!1699 = !DISubprogram(name: "operator~", linkageName: "_ZNK11ap_int_baseILi33ELb1EEcoEv", scope: !386, file: !26, line: 953, type: !615, isLocal: false, isDefinition: false, scopeLine: 953, flags: DIFlagPrototyped, isOptimized: false)
!1700 = !DISubprogram(name: "range", linkageName: "_ZN11ap_int_baseILi33ELb1EE5rangeEii", scope: !386, file: !26, line: 1091, type: !1701, isLocal: false, isDefinition: false, scopeLine: 1091, flags: DIFlagPrototyped, isOptimized: false)
!1701 = !DISubroutineType(types: !1702)
!1702 = !{!1703, !413, !21, !21}
!1703 = distinct !DICompositeType(tag: DW_TAG_structure_type, name: "ap_range_ref<33, true>", file: !109, line: 189, flags: DIFlagFwdDecl, identifier: "_ZTS12ap_range_refILi33ELb1EE")
!1704 = !DISubprogram(name: "range", linkageName: "_ZNK11ap_int_baseILi33ELb1EE5rangeEii", scope: !386, file: !26, line: 1098, type: !1705, isLocal: false, isDefinition: false, scopeLine: 1098, flags: DIFlagPrototyped, isOptimized: false)
!1705 = !DISubroutineType(types: !1706)
!1706 = !{!1703, !408, !21, !21}
!1707 = !DISubprogram(name: "range", linkageName: "_ZN11ap_int_baseILi33ELb1EE5rangeEv", scope: !386, file: !26, line: 1122, type: !1708, isLocal: false, isDefinition: false, scopeLine: 1122, flags: DIFlagPrototyped, isOptimized: false)
!1708 = !DISubroutineType(types: !1709)
!1709 = !{!1703, !413}
!1710 = !DISubprogram(name: "range", linkageName: "_ZNK11ap_int_baseILi33ELb1EE5rangeEv", scope: !386, file: !26, line: 1126, type: !1711, isLocal: false, isDefinition: false, scopeLine: 1126, flags: DIFlagPrototyped, isOptimized: false)
!1711 = !DISubroutineType(types: !1712)
!1712 = !{!1703, !408}
!1713 = !DISubprogram(name: "operator()", linkageName: "_ZN11ap_int_baseILi33ELb1EEclEii", scope: !386, file: !26, line: 1130, type: !1701, isLocal: false, isDefinition: false, scopeLine: 1130, flags: DIFlagPrototyped, isOptimized: false)
!1714 = !DISubprogram(name: "operator()", linkageName: "_ZNK11ap_int_baseILi33ELb1EEclEii", scope: !386, file: !26, line: 1134, type: !1705, isLocal: false, isDefinition: false, scopeLine: 1134, flags: DIFlagPrototyped, isOptimized: false)
!1715 = !DISubprogram(name: "operator[]", linkageName: "_ZN11ap_int_baseILi33ELb1EEixEi", scope: !386, file: !26, line: 1172, type: !1716, isLocal: false, isDefinition: false, scopeLine: 1172, flags: DIFlagPrototyped, isOptimized: false)
!1716 = !DISubroutineType(types: !1717)
!1717 = !{!1718, !413, !21}
!1718 = distinct !DICompositeType(tag: DW_TAG_structure_type, name: "ap_bit_ref<33, true>", file: !1719, line: 807, size: 128, flags: DIFlagTypePassByReference, elements: !1720, templateParams: !1805, identifier: "_ZTS10ap_bit_refILi33ELb1EE")
!1719 = !DIFile(filename: "E:/Xilinx/Vitis_HLS/2022.1/common/technology/autopilot\5Cap_int_ref.h", directory: "C:\5CUsers\5CShaneWu\5COneDrive\5CDesktop\5CDocuments\5CNTU\5CHLS\5ClabB")
!1720 = !{!1721, !1724, !1725, !1731, !1735, !1740, !1744, !1745, !1749, !1752, !1755, !1758, !1761, !1764, !1767, !1770, !1773, !1776, !1779, !1782, !1785, !1788, !1791, !1794, !1795, !1798, !1799, !1802}
!1721 = !DIDerivedType(tag: DW_TAG_member, name: "d_bv", scope: !1718, file: !1719, line: 812, baseType: !1722, size: 64)
!1722 = !DIDerivedType(tag: DW_TAG_reference_type, baseType: !1723, size: 64)
!1723 = !DIDerivedType(tag: DW_TAG_typedef, name: "ref_type", scope: !1718, file: !1719, line: 811, baseType: !386)
!1724 = !DIDerivedType(tag: DW_TAG_member, name: "d_index", scope: !1718, file: !1719, line: 813, baseType: !21, size: 32, offset: 64)
!1725 = !DISubprogram(name: "ap_bit_ref", scope: !1718, file: !1719, line: 817, type: !1726, isLocal: false, isDefinition: false, scopeLine: 817, flags: DIFlagPrototyped, isOptimized: false)
!1726 = !DISubroutineType(types: !1727)
!1727 = !{null, !1728, !1729}
!1728 = !DIDerivedType(tag: DW_TAG_pointer_type, baseType: !1718, size: 64, flags: DIFlagArtificial | DIFlagObjectPointer)
!1729 = !DIDerivedType(tag: DW_TAG_reference_type, baseType: !1730, size: 64)
!1730 = !DIDerivedType(tag: DW_TAG_const_type, baseType: !1718)
!1731 = !DISubprogram(name: "ap_bit_ref", scope: !1718, file: !1719, line: 820, type: !1732, isLocal: false, isDefinition: false, scopeLine: 820, flags: DIFlagPrototyped, isOptimized: false)
!1732 = !DISubroutineType(types: !1733)
!1733 = !{null, !1728, !1734, !21}
!1734 = !DIDerivedType(tag: DW_TAG_pointer_type, baseType: !1723, size: 64)
!1735 = !DISubprogram(name: "ap_bit_ref", scope: !1718, file: !1719, line: 822, type: !1736, isLocal: false, isDefinition: false, scopeLine: 822, flags: DIFlagPrototyped, isOptimized: false)
!1736 = !DISubroutineType(types: !1737)
!1737 = !{null, !1728, !1738, !21}
!1738 = !DIDerivedType(tag: DW_TAG_pointer_type, baseType: !1739, size: 64)
!1739 = !DIDerivedType(tag: DW_TAG_const_type, baseType: !1723)
!1740 = !DISubprogram(name: "operator bool", linkageName: "_ZNK10ap_bit_refILi33ELb1EEcvbEv", scope: !1718, file: !1719, line: 825, type: !1741, isLocal: false, isDefinition: false, scopeLine: 825, flags: DIFlagPrototyped, isOptimized: false)
!1741 = !DISubroutineType(types: !1742)
!1742 = !{!45, !1743}
!1743 = !DIDerivedType(tag: DW_TAG_pointer_type, baseType: !1730, size: 64, flags: DIFlagArtificial | DIFlagObjectPointer)
!1744 = !DISubprogram(name: "to_bool", linkageName: "_ZNK10ap_bit_refILi33ELb1EE7to_boolEv", scope: !1718, file: !1719, line: 826, type: !1741, isLocal: false, isDefinition: false, scopeLine: 826, flags: DIFlagPrototyped, isOptimized: false)
!1745 = !DISubprogram(name: "operator=", linkageName: "_ZN10ap_bit_refILi33ELb1EEaSEb", scope: !1718, file: !1719, line: 844, type: !1746, isLocal: false, isDefinition: false, scopeLine: 844, flags: DIFlagPrototyped, isOptimized: false)
!1746 = !DISubroutineType(types: !1747)
!1747 = !{!1748, !1728, !45}
!1748 = !DIDerivedType(tag: DW_TAG_reference_type, baseType: !1718, size: 64)
!1749 = !DISubprogram(name: "operator=", linkageName: "_ZN10ap_bit_refILi33ELb1EEaSEc", scope: !1718, file: !1719, line: 845, type: !1750, isLocal: false, isDefinition: false, scopeLine: 845, flags: DIFlagPrototyped, isOptimized: false)
!1750 = !DISubroutineType(types: !1751)
!1751 = !{!1748, !1728, !66}
!1752 = !DISubprogram(name: "operator=", linkageName: "_ZN10ap_bit_refILi33ELb1EEaSEa", scope: !1718, file: !1719, line: 846, type: !1753, isLocal: false, isDefinition: false, scopeLine: 846, flags: DIFlagPrototyped, isOptimized: false)
!1753 = !DISubroutineType(types: !1754)
!1754 = !{!1748, !1728, !71}
!1755 = !DISubprogram(name: "operator=", linkageName: "_ZN10ap_bit_refILi33ELb1EEaSEh", scope: !1718, file: !1719, line: 847, type: !1756, isLocal: false, isDefinition: false, scopeLine: 847, flags: DIFlagPrototyped, isOptimized: false)
!1756 = !DISubroutineType(types: !1757)
!1757 = !{!1748, !1728, !76}
!1758 = !DISubprogram(name: "operator=", linkageName: "_ZN10ap_bit_refILi33ELb1EEaSEs", scope: !1718, file: !1719, line: 848, type: !1759, isLocal: false, isDefinition: false, scopeLine: 848, flags: DIFlagPrototyped, isOptimized: false)
!1759 = !DISubroutineType(types: !1760)
!1760 = !{!1748, !1728, !81}
!1761 = !DISubprogram(name: "operator=", linkageName: "_ZN10ap_bit_refILi33ELb1EEaSEt", scope: !1718, file: !1719, line: 849, type: !1762, isLocal: false, isDefinition: false, scopeLine: 849, flags: DIFlagPrototyped, isOptimized: false)
!1762 = !DISubroutineType(types: !1763)
!1763 = !{!1748, !1728, !86}
!1764 = !DISubprogram(name: "operator=", linkageName: "_ZN10ap_bit_refILi33ELb1EEaSEi", scope: !1718, file: !1719, line: 850, type: !1765, isLocal: false, isDefinition: false, scopeLine: 850, flags: DIFlagPrototyped, isOptimized: false)
!1765 = !DISubroutineType(types: !1766)
!1766 = !{!1748, !1728, !21}
!1767 = !DISubprogram(name: "operator=", linkageName: "_ZN10ap_bit_refILi33ELb1EEaSEj", scope: !1718, file: !1719, line: 851, type: !1768, isLocal: false, isDefinition: false, scopeLine: 851, flags: DIFlagPrototyped, isOptimized: false)
!1768 = !DISubroutineType(types: !1769)
!1769 = !{!1748, !1728, !34}
!1770 = !DISubprogram(name: "operator=", linkageName: "_ZN10ap_bit_refILi33ELb1EEaSEl", scope: !1718, file: !1719, line: 852, type: !1771, isLocal: false, isDefinition: false, scopeLine: 852, flags: DIFlagPrototyped, isOptimized: false)
!1771 = !DISubroutineType(types: !1772)
!1772 = !{!1748, !1728, !98}
!1773 = !DISubprogram(name: "operator=", linkageName: "_ZN10ap_bit_refILi33ELb1EEaSEm", scope: !1718, file: !1719, line: 853, type: !1774, isLocal: false, isDefinition: false, scopeLine: 853, flags: DIFlagPrototyped, isOptimized: false)
!1774 = !DISubroutineType(types: !1775)
!1775 = !{!1748, !1728, !103}
!1776 = !DISubprogram(name: "operator=", linkageName: "_ZN10ap_bit_refILi33ELb1EEaSEx", scope: !1718, file: !1719, line: 854, type: !1777, isLocal: false, isDefinition: false, scopeLine: 854, flags: DIFlagPrototyped, isOptimized: false)
!1777 = !DISubroutineType(types: !1778)
!1778 = !{!1748, !1728, !108}
!1779 = !DISubprogram(name: "operator=", linkageName: "_ZN10ap_bit_refILi33ELb1EEaSEy", scope: !1718, file: !1719, line: 855, type: !1780, isLocal: false, isDefinition: false, scopeLine: 855, flags: DIFlagPrototyped, isOptimized: false)
!1780 = !DISubroutineType(types: !1781)
!1781 = !{!1748, !1728, !115}
!1782 = !DISubprogram(name: "operator=", linkageName: "_ZN10ap_bit_refILi33ELb1EEaSEDh", scope: !1718, file: !1719, line: 866, type: !1783, isLocal: false, isDefinition: false, scopeLine: 866, flags: DIFlagPrototyped, isOptimized: false)
!1783 = !DISubroutineType(types: !1784)
!1784 = !{!1748, !1728, !120}
!1785 = !DISubprogram(name: "operator=", linkageName: "_ZN10ap_bit_refILi33ELb1EEaSEf", scope: !1718, file: !1719, line: 867, type: !1786, isLocal: false, isDefinition: false, scopeLine: 867, flags: DIFlagPrototyped, isOptimized: false)
!1786 = !DISubroutineType(types: !1787)
!1787 = !{!1748, !1728, !13}
!1788 = !DISubprogram(name: "operator=", linkageName: "_ZN10ap_bit_refILi33ELb1EEaSEd", scope: !1718, file: !1719, line: 868, type: !1789, isLocal: false, isDefinition: false, scopeLine: 868, flags: DIFlagPrototyped, isOptimized: false)
!1789 = !DISubroutineType(types: !1790)
!1790 = !{!1748, !1728, !128}
!1791 = !DISubprogram(name: "operator=", linkageName: "_ZN10ap_bit_refILi33ELb1EEaSERKS0_", scope: !1718, file: !1719, line: 885, type: !1792, isLocal: false, isDefinition: false, scopeLine: 885, flags: DIFlagPrototyped, isOptimized: false)
!1792 = !DISubroutineType(types: !1793)
!1793 = !{!1748, !1728, !1729}
!1794 = !DISubprogram(name: "get", linkageName: "_ZNK10ap_bit_refILi33ELb1EE3getEv", scope: !1718, file: !1719, line: 1005, type: !1741, isLocal: false, isDefinition: false, scopeLine: 1005, flags: DIFlagPrototyped, isOptimized: false)
!1795 = !DISubprogram(name: "get", linkageName: "_ZN10ap_bit_refILi33ELb1EE3getEv", scope: !1718, file: !1719, line: 1007, type: !1796, isLocal: false, isDefinition: false, scopeLine: 1007, flags: DIFlagPrototyped, isOptimized: false)
!1796 = !DISubroutineType(types: !1797)
!1797 = !{!45, !1728}
!1798 = !DISubprogram(name: "operator~", linkageName: "_ZNK10ap_bit_refILi33ELb1EEcoEv", scope: !1718, file: !1719, line: 1014, type: !1741, isLocal: false, isDefinition: false, scopeLine: 1014, flags: DIFlagPrototyped, isOptimized: false)
!1799 = !DISubprogram(name: "length", linkageName: "_ZNK10ap_bit_refILi33ELb1EE6lengthEv", scope: !1718, file: !1719, line: 1019, type: !1800, isLocal: false, isDefinition: false, scopeLine: 1019, flags: DIFlagPrototyped, isOptimized: false)
!1800 = !DISubroutineType(types: !1801)
!1801 = !{!21, !1743}
!1802 = !DISubprogram(name: "to_string", linkageName: "_ZNK10ap_bit_refILi33ELb1EE9to_stringEv", scope: !1718, file: !1719, line: 1025, type: !1803, isLocal: false, isDefinition: false, scopeLine: 1025, flags: DIFlagPrototyped, isOptimized: false)
!1803 = !DISubroutineType(types: !1804)
!1804 = !{!1386, !1743}
!1805 = !{!1806, !402}
!1806 = !DITemplateValueParameter(name: "_AP_W", type: !21, value: i32 33)
!1807 = !DISubprogram(name: "operator[]", linkageName: "_ZNK11ap_int_baseILi33ELb1EEixEi", scope: !386, file: !26, line: 1188, type: !587, isLocal: false, isDefinition: false, scopeLine: 1188, flags: DIFlagPrototyped, isOptimized: false)
!1808 = !DISubprogram(name: "bit", linkageName: "_ZN11ap_int_baseILi33ELb1EE3bitEi", scope: !386, file: !26, line: 1201, type: !1716, isLocal: false, isDefinition: false, scopeLine: 1201, flags: DIFlagPrototyped, isOptimized: false)
!1809 = !DISubprogram(name: "bit", linkageName: "_ZNK11ap_int_baseILi33ELb1EE3bitEi", scope: !386, file: !26, line: 1216, type: !587, isLocal: false, isDefinition: false, scopeLine: 1216, flags: DIFlagPrototyped, isOptimized: false)
!1810 = !DISubprogram(name: "countLeadingZeros", linkageName: "_ZNK11ap_int_baseILi33ELb1EE17countLeadingZerosEv", scope: !386, file: !26, line: 1239, type: !406, isLocal: false, isDefinition: false, scopeLine: 1239, flags: DIFlagPrototyped, isOptimized: false)
!1811 = !DISubprogram(name: "and_reduce", linkageName: "_ZNK11ap_int_baseILi33ELb1EE10and_reduceEv", scope: !386, file: !26, line: 1459, type: !532, isLocal: false, isDefinition: false, scopeLine: 1459, flags: DIFlagPrototyped, isOptimized: false)
!1812 = !DISubprogram(name: "nand_reduce", linkageName: "_ZNK11ap_int_baseILi33ELb1EE11nand_reduceEv", scope: !386, file: !26, line: 1460, type: !532, isLocal: false, isDefinition: false, scopeLine: 1460, flags: DIFlagPrototyped, isOptimized: false)
!1813 = !DISubprogram(name: "or_reduce", linkageName: "_ZNK11ap_int_baseILi33ELb1EE9or_reduceEv", scope: !386, file: !26, line: 1461, type: !532, isLocal: false, isDefinition: false, scopeLine: 1461, flags: DIFlagPrototyped, isOptimized: false)
!1814 = !DISubprogram(name: "nor_reduce", linkageName: "_ZNK11ap_int_baseILi33ELb1EE10nor_reduceEv", scope: !386, file: !26, line: 1462, type: !532, isLocal: false, isDefinition: false, scopeLine: 1462, flags: DIFlagPrototyped, isOptimized: false)
!1815 = !DISubprogram(name: "xor_reduce", linkageName: "_ZNK11ap_int_baseILi33ELb1EE10xor_reduceEv", scope: !386, file: !26, line: 1463, type: !532, isLocal: false, isDefinition: false, scopeLine: 1463, flags: DIFlagPrototyped, isOptimized: false)
!1816 = !DISubprogram(name: "xnor_reduce", linkageName: "_ZNK11ap_int_baseILi33ELb1EE11xnor_reduceEv", scope: !386, file: !26, line: 1464, type: !532, isLocal: false, isDefinition: false, scopeLine: 1464, flags: DIFlagPrototyped, isOptimized: false)
!1817 = !DISubprogram(name: "to_string", linkageName: "_ZNK11ap_int_baseILi33ELb1EE9to_stringEab", scope: !386, file: !26, line: 1479, type: !1818, isLocal: false, isDefinition: false, scopeLine: 1479, flags: DIFlagPrototyped, isOptimized: false)
!1818 = !DISubroutineType(types: !1819)
!1819 = !{!1386, !408, !71, !45}
!1820 = !DISubprogram(name: "ap_int", scope: !383, file: !285, line: 67, type: !1821, isLocal: false, isDefinition: false, scopeLine: 67, flags: DIFlagPrototyped, isOptimized: false)
!1821 = !DISubroutineType(types: !1822)
!1822 = !{null, !1823}
!1823 = !DIDerivedType(tag: DW_TAG_pointer_type, baseType: !383, size: 64, flags: DIFlagArtificial | DIFlagObjectPointer)
!1824 = !DISubprogram(name: "ap_int", scope: !383, file: !285, line: 103, type: !1825, isLocal: false, isDefinition: false, scopeLine: 103, flags: DIFlagPrototyped, isOptimized: false)
!1825 = !DISubroutineType(types: !1826)
!1826 = !{null, !1823, !1827, !45}
!1827 = !DIBasicType(name: "uint33", size: 33, encoding: DW_ATE_unsigned)
!1828 = !DISubprogram(name: "ap_int", scope: !383, file: !285, line: 173, type: !1829, isLocal: false, isDefinition: false, scopeLine: 173, flags: DIFlagPrototyped, isOptimized: false)
!1829 = !DISubroutineType(types: !1830)
!1830 = !{null, !1823, !45}
!1831 = !DISubprogram(name: "ap_int", scope: !383, file: !285, line: 174, type: !1832, isLocal: false, isDefinition: false, scopeLine: 174, flags: DIFlagPrototyped, isOptimized: false)
!1832 = !DISubroutineType(types: !1833)
!1833 = !{null, !1823, !66}
!1834 = !DISubprogram(name: "ap_int", scope: !383, file: !285, line: 175, type: !1835, isLocal: false, isDefinition: false, scopeLine: 175, flags: DIFlagPrototyped, isOptimized: false)
!1835 = !DISubroutineType(types: !1836)
!1836 = !{null, !1823, !71}
!1837 = !DISubprogram(name: "ap_int", scope: !383, file: !285, line: 176, type: !1838, isLocal: false, isDefinition: false, scopeLine: 176, flags: DIFlagPrototyped, isOptimized: false)
!1838 = !DISubroutineType(types: !1839)
!1839 = !{null, !1823, !76}
!1840 = !DISubprogram(name: "ap_int", scope: !383, file: !285, line: 177, type: !1841, isLocal: false, isDefinition: false, scopeLine: 177, flags: DIFlagPrototyped, isOptimized: false)
!1841 = !DISubroutineType(types: !1842)
!1842 = !{null, !1823, !81}
!1843 = !DISubprogram(name: "ap_int", scope: !383, file: !285, line: 178, type: !1844, isLocal: false, isDefinition: false, scopeLine: 178, flags: DIFlagPrototyped, isOptimized: false)
!1844 = !DISubroutineType(types: !1845)
!1845 = !{null, !1823, !86}
!1846 = !DISubprogram(name: "ap_int", scope: !383, file: !285, line: 179, type: !1847, isLocal: false, isDefinition: false, scopeLine: 179, flags: DIFlagPrototyped, isOptimized: false)
!1847 = !DISubroutineType(types: !1848)
!1848 = !{null, !1823, !21}
!1849 = !DISubprogram(name: "ap_int", scope: !383, file: !285, line: 180, type: !1850, isLocal: false, isDefinition: false, scopeLine: 180, flags: DIFlagPrototyped, isOptimized: false)
!1850 = !DISubroutineType(types: !1851)
!1851 = !{null, !1823, !34}
!1852 = !DISubprogram(name: "ap_int", scope: !383, file: !285, line: 181, type: !1853, isLocal: false, isDefinition: false, scopeLine: 181, flags: DIFlagPrototyped, isOptimized: false)
!1853 = !DISubroutineType(types: !1854)
!1854 = !{null, !1823, !98}
!1855 = !DISubprogram(name: "ap_int", scope: !383, file: !285, line: 182, type: !1856, isLocal: false, isDefinition: false, scopeLine: 182, flags: DIFlagPrototyped, isOptimized: false)
!1856 = !DISubroutineType(types: !1857)
!1857 = !{null, !1823, !103}
!1858 = !DISubprogram(name: "ap_int", scope: !383, file: !285, line: 183, type: !1859, isLocal: false, isDefinition: false, scopeLine: 183, flags: DIFlagPrototyped, isOptimized: false)
!1859 = !DISubroutineType(types: !1860)
!1860 = !{null, !1823, !108}
!1861 = !DISubprogram(name: "ap_int", scope: !383, file: !285, line: 184, type: !1862, isLocal: false, isDefinition: false, scopeLine: 184, flags: DIFlagPrototyped, isOptimized: false)
!1862 = !DISubroutineType(types: !1863)
!1863 = !{null, !1823, !115}
!1864 = !DISubprogram(name: "ap_int", scope: !383, file: !285, line: 186, type: !1865, isLocal: false, isDefinition: false, scopeLine: 186, flags: DIFlagPrototyped, isOptimized: false)
!1865 = !DISubroutineType(types: !1866)
!1866 = !{null, !1823, !128}
!1867 = !DISubprogram(name: "ap_int", scope: !383, file: !285, line: 187, type: !1868, isLocal: false, isDefinition: false, scopeLine: 187, flags: DIFlagPrototyped, isOptimized: false)
!1868 = !DISubroutineType(types: !1869)
!1869 = !{null, !1823, !13}
!1870 = !DISubprogram(name: "ap_int", scope: !383, file: !285, line: 188, type: !1871, isLocal: false, isDefinition: false, scopeLine: 188, flags: DIFlagPrototyped, isOptimized: false)
!1871 = !DISubroutineType(types: !1872)
!1872 = !{null, !1823, !120}
!1873 = !DISubprogram(name: "ap_int", scope: !383, file: !285, line: 191, type: !1874, isLocal: false, isDefinition: false, scopeLine: 191, flags: DIFlagPrototyped, isOptimized: false)
!1874 = !DISubroutineType(types: !1875)
!1875 = !{null, !1823, !132}
!1876 = !DISubprogram(name: "ap_int", scope: !383, file: !285, line: 193, type: !1877, isLocal: false, isDefinition: false, scopeLine: 193, flags: DIFlagPrototyped, isOptimized: false)
!1877 = !DISubroutineType(types: !1878)
!1878 = !{null, !1823, !132, !71}
!1879 = !DISubprogram(name: "operator=", linkageName: "_ZN6ap_intILi33EEaSERKS0_", scope: !383, file: !285, line: 198, type: !1880, isLocal: false, isDefinition: false, scopeLine: 198, flags: DIFlagPrototyped, isOptimized: false)
!1880 = !DISubroutineType(types: !1881)
!1881 = !{!1882, !1823, !1883}
!1882 = !DIDerivedType(tag: DW_TAG_reference_type, baseType: !383, size: 64)
!1883 = !DIDerivedType(tag: DW_TAG_reference_type, baseType: !1884, size: 64)
!1884 = !DIDerivedType(tag: DW_TAG_const_type, baseType: !383)
!1885 = !DISubprogram(name: "operator=", linkageName: "_ZN6ap_intILi33EEaSERVKS0_", scope: !383, file: !285, line: 207, type: !1886, isLocal: false, isDefinition: false, scopeLine: 207, flags: DIFlagPrototyped, isOptimized: false)
!1886 = !DISubroutineType(types: !1887)
!1887 = !{!1882, !1823, !1888}
!1888 = !DIDerivedType(tag: DW_TAG_reference_type, baseType: !1889, size: 64)
!1889 = !DIDerivedType(tag: DW_TAG_const_type, baseType: !1890)
!1890 = !DIDerivedType(tag: DW_TAG_volatile_type, baseType: !383)
!1891 = !DISubprogram(name: "operator=", linkageName: "_ZNV6ap_intILi33EEaSERKS0_", scope: !383, file: !285, line: 213, type: !1892, isLocal: false, isDefinition: false, scopeLine: 213, flags: DIFlagPrototyped, isOptimized: false)
!1892 = !DISubroutineType(types: !1893)
!1893 = !{null, !1894, !1883}
!1894 = !DIDerivedType(tag: DW_TAG_pointer_type, baseType: !1890, size: 64, flags: DIFlagArtificial | DIFlagObjectPointer)
!1895 = !DISubprogram(name: "operator=", linkageName: "_ZNV6ap_intILi33EEaSERVKS0_", scope: !383, file: !285, line: 217, type: !1896, isLocal: false, isDefinition: false, scopeLine: 217, flags: DIFlagPrototyped, isOptimized: false)
!1896 = !DISubroutineType(types: !1897)
!1897 = !{null, !1894, !1888}
!1898 = !{!1806}
!1899 = !DISubprogram(name: "operator!", linkageName: "_ZNK11ap_int_baseILi32ELb0EEntEv", scope: !27, file: !26, line: 947, type: !198, isLocal: false, isDefinition: false, scopeLine: 947, flags: DIFlagPrototyped, isOptimized: false)
!1900 = !DISubprogram(name: "operator~", linkageName: "_ZNK11ap_int_baseILi32ELb0EEcoEv", scope: !27, file: !26, line: 953, type: !369, isLocal: false, isDefinition: false, scopeLine: 953, flags: DIFlagPrototyped, isOptimized: false)
!1901 = !DISubprogram(name: "range", linkageName: "_ZN11ap_int_baseILi32ELb0EE5rangeEii", scope: !27, file: !26, line: 1091, type: !1902, isLocal: false, isDefinition: false, scopeLine: 1091, flags: DIFlagPrototyped, isOptimized: false)
!1902 = !DISubroutineType(types: !1903)
!1903 = !{!1904, !58, !21, !21}
!1904 = distinct !DICompositeType(tag: DW_TAG_structure_type, name: "ap_range_ref<32, false>", file: !1719, line: 336, size: 128, flags: DIFlagTypePassByReference, elements: !1905, templateParams: !2019, identifier: "_ZTS12ap_range_refILi32ELb0EE")
!1905 = !{!1906, !1909, !1910, !1911, !1917, !1921, !1926, !1930, !1933, !1937, !1940, !1943, !1946, !1949, !1952, !1955, !1958, !1961, !1964, !1967, !1970, !1973, !1976, !1979, !1982, !1985, !1989, !1990, !1991, !1992, !1993, !1994, !1997, !1998, !2001, !2004, !2007, !2010, !2011, !2014, !2015, !2016}
!1906 = !DIDerivedType(tag: DW_TAG_member, name: "d_bv", scope: !1904, file: !1719, line: 341, baseType: !1907, size: 64)
!1907 = !DIDerivedType(tag: DW_TAG_reference_type, baseType: !1908, size: 64)
!1908 = !DIDerivedType(tag: DW_TAG_typedef, name: "ref_type", scope: !1904, file: !1719, line: 340, baseType: !27)
!1909 = !DIDerivedType(tag: DW_TAG_member, name: "l_index", scope: !1904, file: !1719, line: 342, baseType: !21, size: 32, offset: 64)
!1910 = !DIDerivedType(tag: DW_TAG_member, name: "h_index", scope: !1904, file: !1719, line: 343, baseType: !21, size: 32, offset: 96)
!1911 = !DISubprogram(name: "ap_range_ref", scope: !1904, file: !1719, line: 346, type: !1912, isLocal: false, isDefinition: false, scopeLine: 346, flags: DIFlagPrototyped, isOptimized: false)
!1912 = !DISubroutineType(types: !1913)
!1913 = !{null, !1914, !1915}
!1914 = !DIDerivedType(tag: DW_TAG_pointer_type, baseType: !1904, size: 64, flags: DIFlagArtificial | DIFlagObjectPointer)
!1915 = !DIDerivedType(tag: DW_TAG_reference_type, baseType: !1916, size: 64)
!1916 = !DIDerivedType(tag: DW_TAG_const_type, baseType: !1904)
!1917 = !DISubprogram(name: "ap_range_ref", scope: !1904, file: !1719, line: 349, type: !1918, isLocal: false, isDefinition: false, scopeLine: 349, flags: DIFlagPrototyped, isOptimized: false)
!1918 = !DISubroutineType(types: !1919)
!1919 = !{null, !1914, !1920, !21, !21}
!1920 = !DIDerivedType(tag: DW_TAG_pointer_type, baseType: !1908, size: 64)
!1921 = !DISubprogram(name: "ap_range_ref", scope: !1904, file: !1719, line: 352, type: !1922, isLocal: false, isDefinition: false, scopeLine: 352, flags: DIFlagPrototyped, isOptimized: false)
!1922 = !DISubroutineType(types: !1923)
!1923 = !{null, !1914, !1924, !21, !21}
!1924 = !DIDerivedType(tag: DW_TAG_pointer_type, baseType: !1925, size: 64)
!1925 = !DIDerivedType(tag: DW_TAG_const_type, baseType: !1908)
!1926 = !DISubprogram(name: "operator ap_int_base", linkageName: "_ZNK12ap_range_refILi32ELb0EEcv11ap_int_baseILi32ELb0EEEv", scope: !1904, file: !1719, line: 355, type: !1927, isLocal: false, isDefinition: false, scopeLine: 355, flags: DIFlagPrototyped, isOptimized: false)
!1927 = !DISubroutineType(types: !1928)
!1928 = !{!27, !1929}
!1929 = !DIDerivedType(tag: DW_TAG_pointer_type, baseType: !1916, size: 64, flags: DIFlagArtificial | DIFlagObjectPointer)
!1930 = !DISubprogram(name: "operator unsigned long long", linkageName: "_ZNK12ap_range_refILi32ELb0EEcvyEv", scope: !1904, file: !1719, line: 361, type: !1931, isLocal: false, isDefinition: false, scopeLine: 361, flags: DIFlagPrototyped, isOptimized: false)
!1931 = !DISubroutineType(types: !1932)
!1932 = !{!115, !1929}
!1933 = !DISubprogram(name: "operator=", linkageName: "_ZN12ap_range_refILi32ELb0EEaSEb", scope: !1904, file: !1719, line: 385, type: !1934, isLocal: false, isDefinition: false, scopeLine: 385, flags: DIFlagPrototyped, isOptimized: false)
!1934 = !DISubroutineType(types: !1935)
!1935 = !{!1936, !1914, !45}
!1936 = !DIDerivedType(tag: DW_TAG_reference_type, baseType: !1904, size: 64)
!1937 = !DISubprogram(name: "operator=", linkageName: "_ZN12ap_range_refILi32ELb0EEaSEc", scope: !1904, file: !1719, line: 386, type: !1938, isLocal: false, isDefinition: false, scopeLine: 386, flags: DIFlagPrototyped, isOptimized: false)
!1938 = !DISubroutineType(types: !1939)
!1939 = !{!1936, !1914, !66}
!1940 = !DISubprogram(name: "operator=", linkageName: "_ZN12ap_range_refILi32ELb0EEaSEa", scope: !1904, file: !1719, line: 387, type: !1941, isLocal: false, isDefinition: false, scopeLine: 387, flags: DIFlagPrototyped, isOptimized: false)
!1941 = !DISubroutineType(types: !1942)
!1942 = !{!1936, !1914, !71}
!1943 = !DISubprogram(name: "operator=", linkageName: "_ZN12ap_range_refILi32ELb0EEaSEh", scope: !1904, file: !1719, line: 388, type: !1944, isLocal: false, isDefinition: false, scopeLine: 388, flags: DIFlagPrototyped, isOptimized: false)
!1944 = !DISubroutineType(types: !1945)
!1945 = !{!1936, !1914, !76}
!1946 = !DISubprogram(name: "operator=", linkageName: "_ZN12ap_range_refILi32ELb0EEaSEs", scope: !1904, file: !1719, line: 389, type: !1947, isLocal: false, isDefinition: false, scopeLine: 389, flags: DIFlagPrototyped, isOptimized: false)
!1947 = !DISubroutineType(types: !1948)
!1948 = !{!1936, !1914, !81}
!1949 = !DISubprogram(name: "operator=", linkageName: "_ZN12ap_range_refILi32ELb0EEaSEt", scope: !1904, file: !1719, line: 390, type: !1950, isLocal: false, isDefinition: false, scopeLine: 390, flags: DIFlagPrototyped, isOptimized: false)
!1950 = !DISubroutineType(types: !1951)
!1951 = !{!1936, !1914, !86}
!1952 = !DISubprogram(name: "operator=", linkageName: "_ZN12ap_range_refILi32ELb0EEaSEi", scope: !1904, file: !1719, line: 391, type: !1953, isLocal: false, isDefinition: false, scopeLine: 391, flags: DIFlagPrototyped, isOptimized: false)
!1953 = !DISubroutineType(types: !1954)
!1954 = !{!1936, !1914, !21}
!1955 = !DISubprogram(name: "operator=", linkageName: "_ZN12ap_range_refILi32ELb0EEaSEj", scope: !1904, file: !1719, line: 392, type: !1956, isLocal: false, isDefinition: false, scopeLine: 392, flags: DIFlagPrototyped, isOptimized: false)
!1956 = !DISubroutineType(types: !1957)
!1957 = !{!1936, !1914, !34}
!1958 = !DISubprogram(name: "operator=", linkageName: "_ZN12ap_range_refILi32ELb0EEaSEl", scope: !1904, file: !1719, line: 393, type: !1959, isLocal: false, isDefinition: false, scopeLine: 393, flags: DIFlagPrototyped, isOptimized: false)
!1959 = !DISubroutineType(types: !1960)
!1960 = !{!1936, !1914, !98}
!1961 = !DISubprogram(name: "operator=", linkageName: "_ZN12ap_range_refILi32ELb0EEaSEm", scope: !1904, file: !1719, line: 394, type: !1962, isLocal: false, isDefinition: false, scopeLine: 394, flags: DIFlagPrototyped, isOptimized: false)
!1962 = !DISubroutineType(types: !1963)
!1963 = !{!1936, !1914, !103}
!1964 = !DISubprogram(name: "operator=", linkageName: "_ZN12ap_range_refILi32ELb0EEaSEx", scope: !1904, file: !1719, line: 395, type: !1965, isLocal: false, isDefinition: false, scopeLine: 395, flags: DIFlagPrototyped, isOptimized: false)
!1965 = !DISubroutineType(types: !1966)
!1966 = !{!1936, !1914, !108}
!1967 = !DISubprogram(name: "operator=", linkageName: "_ZN12ap_range_refILi32ELb0EEaSEy", scope: !1904, file: !1719, line: 396, type: !1968, isLocal: false, isDefinition: false, scopeLine: 396, flags: DIFlagPrototyped, isOptimized: false)
!1968 = !DISubroutineType(types: !1969)
!1969 = !{!1936, !1914, !115}
!1970 = !DISubprogram(name: "operator=", linkageName: "_ZN12ap_range_refILi32ELb0EEaSEDh", scope: !1904, file: !1719, line: 397, type: !1971, isLocal: false, isDefinition: false, scopeLine: 397, flags: DIFlagPrototyped, isOptimized: false)
!1971 = !DISubroutineType(types: !1972)
!1972 = !{!1936, !1914, !120}
!1973 = !DISubprogram(name: "operator=", linkageName: "_ZN12ap_range_refILi32ELb0EEaSEf", scope: !1904, file: !1719, line: 398, type: !1974, isLocal: false, isDefinition: false, scopeLine: 398, flags: DIFlagPrototyped, isOptimized: false)
!1974 = !DISubroutineType(types: !1975)
!1975 = !{!1936, !1914, !13}
!1976 = !DISubprogram(name: "operator=", linkageName: "_ZN12ap_range_refILi32ELb0EEaSEd", scope: !1904, file: !1719, line: 399, type: !1977, isLocal: false, isDefinition: false, scopeLine: 399, flags: DIFlagPrototyped, isOptimized: false)
!1977 = !DISubroutineType(types: !1978)
!1978 = !{!1936, !1914, !128}
!1979 = !DISubprogram(name: "operator=", linkageName: "_ZN12ap_range_refILi32ELb0EEaSEPKc", scope: !1904, file: !1719, line: 404, type: !1980, isLocal: false, isDefinition: false, scopeLine: 404, flags: DIFlagPrototyped, isOptimized: false)
!1980 = !DISubroutineType(types: !1981)
!1981 = !{!1936, !1914, !132}
!1982 = !DISubprogram(name: "operator=", linkageName: "_ZN12ap_range_refILi32ELb0EEaSERKS0_", scope: !1904, file: !1719, line: 421, type: !1983, isLocal: false, isDefinition: false, scopeLine: 421, flags: DIFlagPrototyped, isOptimized: false)
!1983 = !DISubroutineType(types: !1984)
!1984 = !{!1936, !1914, !1915}
!1985 = !DISubprogram(name: "operator,", linkageName: "_ZN12ap_range_refILi32ELb0EEcmER11ap_int_baseILi32ELb0EE", scope: !1904, file: !1719, line: 489, type: !1986, isLocal: false, isDefinition: false, scopeLine: 489, flags: DIFlagPrototyped, isOptimized: false)
!1986 = !DISubroutineType(types: !1987)
!1987 = !{!1988, !1914, !154}
!1988 = distinct !DICompositeType(tag: DW_TAG_structure_type, name: "ap_concat_ref<32, ap_range_ref<32, false>, 32, ap_int_base<32, false> >", file: !1719, line: 74, flags: DIFlagFwdDecl, identifier: "_ZTS13ap_concat_refILi32E12ap_range_refILi32ELb0EELi32E11ap_int_baseILi32ELb0EEE")
!1989 = !DISubprogram(name: "operator~", linkageName: "_ZNK12ap_range_refILi32ELb0EEcoEv", scope: !1904, file: !1719, line: 647, type: !1927, isLocal: false, isDefinition: false, scopeLine: 647, flags: DIFlagPrototyped, isOptimized: false)
!1990 = !DISubprogram(name: "operator!", linkageName: "_ZNK12ap_range_refILi32ELb0EEntEv", scope: !1904, file: !1719, line: 653, type: !1927, isLocal: false, isDefinition: false, scopeLine: 653, flags: DIFlagPrototyped, isOptimized: false)
!1991 = !DISubprogram(name: "operator+", linkageName: "_ZNK12ap_range_refILi32ELb0EEpsEv", scope: !1904, file: !1719, line: 659, type: !1927, isLocal: false, isDefinition: false, scopeLine: 659, flags: DIFlagPrototyped, isOptimized: false)
!1992 = !DISubprogram(name: "operator-", linkageName: "_ZNK12ap_range_refILi32ELb0EEngEv", scope: !1904, file: !1719, line: 665, type: !1927, isLocal: false, isDefinition: false, scopeLine: 665, flags: DIFlagPrototyped, isOptimized: false)
!1993 = !DISubprogram(name: "get", linkageName: "_ZNK12ap_range_refILi32ELb0EE3getEv", scope: !1904, file: !1719, line: 672, type: !1927, isLocal: false, isDefinition: false, scopeLine: 672, flags: DIFlagPrototyped, isOptimized: false)
!1994 = !DISubprogram(name: "length", linkageName: "_ZNK12ap_range_refILi32ELb0EE6lengthEv", scope: !1904, file: !1719, line: 683, type: !1995, isLocal: false, isDefinition: false, scopeLine: 683, flags: DIFlagPrototyped, isOptimized: false)
!1995 = !DISubroutineType(types: !1996)
!1996 = !{!21, !1929}
!1997 = !DISubprogram(name: "to_int", linkageName: "_ZNK12ap_range_refILi32ELb0EE6to_intEv", scope: !1904, file: !1719, line: 687, type: !1995, isLocal: false, isDefinition: false, scopeLine: 687, flags: DIFlagPrototyped, isOptimized: false)
!1998 = !DISubprogram(name: "to_uint", linkageName: "_ZNK12ap_range_refILi32ELb0EE7to_uintEv", scope: !1904, file: !1719, line: 691, type: !1999, isLocal: false, isDefinition: false, scopeLine: 691, flags: DIFlagPrototyped, isOptimized: false)
!1999 = !DISubroutineType(types: !2000)
!2000 = !{!34, !1929}
!2001 = !DISubprogram(name: "to_long", linkageName: "_ZNK12ap_range_refILi32ELb0EE7to_longEv", scope: !1904, file: !1719, line: 697, type: !2002, isLocal: false, isDefinition: false, scopeLine: 697, flags: DIFlagPrototyped, isOptimized: false)
!2002 = !DISubroutineType(types: !2003)
!2003 = !{!98, !1929}
!2004 = !DISubprogram(name: "to_ulong", linkageName: "_ZNK12ap_range_refILi32ELb0EE8to_ulongEv", scope: !1904, file: !1719, line: 701, type: !2005, isLocal: false, isDefinition: false, scopeLine: 701, flags: DIFlagPrototyped, isOptimized: false)
!2005 = !DISubroutineType(types: !2006)
!2006 = !{!103, !1929}
!2007 = !DISubprogram(name: "to_int64", linkageName: "_ZNK12ap_range_refILi32ELb0EE8to_int64Ev", scope: !1904, file: !1719, line: 707, type: !2008, isLocal: false, isDefinition: false, scopeLine: 707, flags: DIFlagPrototyped, isOptimized: false)
!2008 = !DISubroutineType(types: !2009)
!2009 = !{!108, !1929}
!2010 = !DISubprogram(name: "to_uint64", linkageName: "_ZNK12ap_range_refILi32ELb0EE9to_uint64Ev", scope: !1904, file: !1719, line: 711, type: !1931, isLocal: false, isDefinition: false, scopeLine: 711, flags: DIFlagPrototyped, isOptimized: false)
!2011 = !DISubprogram(name: "and_reduce", linkageName: "_ZNK12ap_range_refILi32ELb0EE10and_reduceEv", scope: !1904, file: !1719, line: 717, type: !2012, isLocal: false, isDefinition: false, scopeLine: 717, flags: DIFlagPrototyped, isOptimized: false)
!2012 = !DISubroutineType(types: !2013)
!2013 = !{!45, !1929}
!2014 = !DISubprogram(name: "or_reduce", linkageName: "_ZNK12ap_range_refILi32ELb0EE9or_reduceEv", scope: !1904, file: !1719, line: 731, type: !2012, isLocal: false, isDefinition: false, scopeLine: 731, flags: DIFlagPrototyped, isOptimized: false)
!2015 = !DISubprogram(name: "xor_reduce", linkageName: "_ZNK12ap_range_refILi32ELb0EE10xor_reduceEv", scope: !1904, file: !1719, line: 745, type: !2012, isLocal: false, isDefinition: false, scopeLine: 745, flags: DIFlagPrototyped, isOptimized: false)
!2016 = !DISubprogram(name: "to_string", linkageName: "_ZNK12ap_range_refILi32ELb0EE9to_stringEa", scope: !1904, file: !1719, line: 766, type: !2017, isLocal: false, isDefinition: false, scopeLine: 766, flags: DIFlagPrototyped, isOptimized: false)
!2017 = !DISubroutineType(types: !2018)
!2018 = !{!1386, !1929, !71}
!2019 = !{!366, !44}
!2020 = !DISubprogram(name: "range", linkageName: "_ZNK11ap_int_baseILi32ELb0EE5rangeEii", scope: !27, file: !26, line: 1098, type: !2021, isLocal: false, isDefinition: false, scopeLine: 1098, flags: DIFlagPrototyped, isOptimized: false)
!2021 = !DISubroutineType(types: !2022)
!2022 = !{!1904, !53, !21, !21}
!2023 = !DISubprogram(name: "range", linkageName: "_ZN11ap_int_baseILi32ELb0EE5rangeEv", scope: !27, file: !26, line: 1122, type: !2024, isLocal: false, isDefinition: false, scopeLine: 1122, flags: DIFlagPrototyped, isOptimized: false)
!2024 = !DISubroutineType(types: !2025)
!2025 = !{!1904, !58}
!2026 = !DISubprogram(name: "range", linkageName: "_ZNK11ap_int_baseILi32ELb0EE5rangeEv", scope: !27, file: !26, line: 1126, type: !2027, isLocal: false, isDefinition: false, scopeLine: 1126, flags: DIFlagPrototyped, isOptimized: false)
!2027 = !DISubroutineType(types: !2028)
!2028 = !{!1904, !53}
!2029 = !DISubprogram(name: "operator()", linkageName: "_ZN11ap_int_baseILi32ELb0EEclEii", scope: !27, file: !26, line: 1130, type: !1902, isLocal: false, isDefinition: false, scopeLine: 1130, flags: DIFlagPrototyped, isOptimized: false)
!2030 = !DISubprogram(name: "operator()", linkageName: "_ZNK11ap_int_baseILi32ELb0EEclEii", scope: !27, file: !26, line: 1134, type: !2021, isLocal: false, isDefinition: false, scopeLine: 1134, flags: DIFlagPrototyped, isOptimized: false)
!2031 = !DISubprogram(name: "operator[]", linkageName: "_ZN11ap_int_baseILi32ELb0EEixEi", scope: !27, file: !26, line: 1172, type: !2032, isLocal: false, isDefinition: false, scopeLine: 1172, flags: DIFlagPrototyped, isOptimized: false)
!2032 = !DISubroutineType(types: !2033)
!2033 = !{!2034, !58, !21}
!2034 = distinct !DICompositeType(tag: DW_TAG_structure_type, name: "ap_bit_ref<32, false>", file: !1719, line: 807, size: 128, flags: DIFlagTypePassByReference, elements: !2035, templateParams: !2019, identifier: "_ZTS10ap_bit_refILi32ELb0EE")
!2035 = !{!2036, !2039, !2040, !2046, !2050, !2055, !2059, !2060, !2064, !2067, !2070, !2073, !2076, !2079, !2082, !2085, !2088, !2091, !2094, !2097, !2100, !2103, !2106, !2109, !2110, !2113, !2114, !2117}
!2036 = !DIDerivedType(tag: DW_TAG_member, name: "d_bv", scope: !2034, file: !1719, line: 812, baseType: !2037, size: 64)
!2037 = !DIDerivedType(tag: DW_TAG_reference_type, baseType: !2038, size: 64)
!2038 = !DIDerivedType(tag: DW_TAG_typedef, name: "ref_type", scope: !2034, file: !1719, line: 811, baseType: !27)
!2039 = !DIDerivedType(tag: DW_TAG_member, name: "d_index", scope: !2034, file: !1719, line: 813, baseType: !21, size: 32, offset: 64)
!2040 = !DISubprogram(name: "ap_bit_ref", scope: !2034, file: !1719, line: 817, type: !2041, isLocal: false, isDefinition: false, scopeLine: 817, flags: DIFlagPrototyped, isOptimized: false)
!2041 = !DISubroutineType(types: !2042)
!2042 = !{null, !2043, !2044}
!2043 = !DIDerivedType(tag: DW_TAG_pointer_type, baseType: !2034, size: 64, flags: DIFlagArtificial | DIFlagObjectPointer)
!2044 = !DIDerivedType(tag: DW_TAG_reference_type, baseType: !2045, size: 64)
!2045 = !DIDerivedType(tag: DW_TAG_const_type, baseType: !2034)
!2046 = !DISubprogram(name: "ap_bit_ref", scope: !2034, file: !1719, line: 820, type: !2047, isLocal: false, isDefinition: false, scopeLine: 820, flags: DIFlagPrototyped, isOptimized: false)
!2047 = !DISubroutineType(types: !2048)
!2048 = !{null, !2043, !2049, !21}
!2049 = !DIDerivedType(tag: DW_TAG_pointer_type, baseType: !2038, size: 64)
!2050 = !DISubprogram(name: "ap_bit_ref", scope: !2034, file: !1719, line: 822, type: !2051, isLocal: false, isDefinition: false, scopeLine: 822, flags: DIFlagPrototyped, isOptimized: false)
!2051 = !DISubroutineType(types: !2052)
!2052 = !{null, !2043, !2053, !21}
!2053 = !DIDerivedType(tag: DW_TAG_pointer_type, baseType: !2054, size: 64)
!2054 = !DIDerivedType(tag: DW_TAG_const_type, baseType: !2038)
